ARM GAS  /var/folders/sj/m2p5rq1x7lz4zl2q3d5y9hzm0000gn/T//ccW0HYIg.s 			page 1


   1              		.cpu cortex-m7
   2              		.eabi_attribute 28, 1
   3              		.eabi_attribute 20, 1
   4              		.eabi_attribute 21, 1
   5              		.eabi_attribute 23, 3
   6              		.eabi_attribute 24, 1
   7              		.eabi_attribute 25, 1
   8              		.eabi_attribute 26, 1
   9              		.eabi_attribute 30, 2
  10              		.eabi_attribute 34, 1
  11              		.eabi_attribute 18, 4
  12              		.file	"Fake08.cpp"
  13              		.text
  14              		.section	.text._ZN7daisysp3SvfD2Ev,"axG",%progbits,_ZN7daisysp3SvfD5Ev,comdat
  15              		.align	1
  16              		.p2align 2,,3
  17              		.weak	_ZN7daisysp3SvfD2Ev
  18              		.arch armv7e-m
  19              		.syntax unified
  20              		.thumb
  21              		.thumb_func
  22              		.fpu fpv5-d16
  24              	_ZN7daisysp3SvfD2Ev:
  25              		@ args = 0, pretend = 0, frame = 0
  26              		@ frame_needed = 0, uses_anonymous_args = 0
  27              		@ link register save eliminated.
  28 0000 7047     		bx	lr
  30              		.weak	_ZN7daisysp3SvfD1Ev
  31              		.thumb_set _ZN7daisysp3SvfD1Ev,_ZN7daisysp3SvfD2Ev
  32 0002 00BF     		.section	.text._ZN7daisysp5MetroD2Ev,"axG",%progbits,_ZN7daisysp5MetroD5Ev,comdat
  33              		.align	1
  34              		.p2align 2,,3
  35              		.weak	_ZN7daisysp5MetroD2Ev
  36              		.syntax unified
  37              		.thumb
  38              		.thumb_func
  39              		.fpu fpv5-d16
  41              	_ZN7daisysp5MetroD2Ev:
  42              		@ args = 0, pretend = 0, frame = 0
  43              		@ frame_needed = 0, uses_anonymous_args = 0
  44              		@ link register save eliminated.
  45 0000 7047     		bx	lr
  47              		.weak	_ZN7daisysp5MetroD1Ev
  48              		.thumb_set _ZN7daisysp5MetroD1Ev,_ZN7daisysp5MetroD2Ev
  49 0002 00BF     		.section	.text._ZN5daisy9ParameterD2Ev,"axG",%progbits,_ZN5daisy9ParameterD5Ev,comdat
  50              		.align	1
  51              		.p2align 2,,3
  52              		.weak	_ZN5daisy9ParameterD2Ev
  53              		.syntax unified
  54              		.thumb
  55              		.thumb_func
  56              		.fpu fpv5-d16
  58              	_ZN5daisy9ParameterD2Ev:
  59              		@ args = 0, pretend = 0, frame = 0
  60              		@ frame_needed = 0, uses_anonymous_args = 0
  61              		@ link register save eliminated.
  62 0000 7047     		bx	lr
ARM GAS  /var/folders/sj/m2p5rq1x7lz4zl2q3d5y9hzm0000gn/T//ccW0HYIg.s 			page 2


  64              		.weak	_ZN5daisy9ParameterD1Ev
  65              		.thumb_set _ZN5daisy9ParameterD1Ev,_ZN5daisy9ParameterD2Ev
  66 0002 00BF     		.section	.text._ZN5daisy10DaisyFieldD2Ev,"axG",%progbits,_ZN5daisy10DaisyFieldD5Ev,comdat
  67              		.align	1
  68              		.p2align 2,,3
  69              		.weak	_ZN5daisy10DaisyFieldD2Ev
  70              		.syntax unified
  71              		.thumb
  72              		.thumb_func
  73              		.fpu fpv5-d16
  75              	_ZN5daisy10DaisyFieldD2Ev:
  76              		@ args = 0, pretend = 0, frame = 0
  77              		@ frame_needed = 0, uses_anonymous_args = 0
  78              		@ link register save eliminated.
  79 0000 7047     		bx	lr
  81              		.weak	_ZN5daisy10DaisyFieldD1Ev
  82              		.thumb_set _ZN5daisy10DaisyFieldD1Ev,_ZN5daisy10DaisyFieldD2Ev
  83 0002 00BF     		.section	.text._Z4Kickv,"ax",%progbits
  84              		.align	1
  85              		.p2align 2,,3
  86              		.global	_Z4Kickv
  87              		.syntax unified
  88              		.thumb
  89              		.thumb_func
  90              		.fpu fpv5-d16
  92              	_Z4Kickv:
  93              		@ args = 0, pretend = 0, frame = 0
  94              		@ frame_needed = 0, uses_anonymous_args = 0
  95              		@ link register save eliminated.
  96 0000 0123     		movs	r3, #1
  97 0002 4FF07E5C 		mov	ip, #1065353216
  98 0006 0548     		ldr	r0, .L7
  99 0008 0549     		ldr	r1, .L7+4
 100 000a 064A     		ldr	r2, .L7+8
 101 000c C0F800C0 		str	ip, [r0]	@ float
 102 0010 81F83430 		strb	r3, [r1, #52]
 103 0014 82F83430 		strb	r3, [r2, #52]
 104 0018 7047     		bx	lr
 105              	.L8:
 106 001a 00BF     		.align	2
 107              	.L7:
 108 001c 00000000 		.word	.LANCHOR0
 109 0020 00000000 		.word	.LANCHOR1
 110 0024 00000000 		.word	.LANCHOR2
 112              		.section	.text._Z5Snarev,"ax",%progbits
 113              		.align	1
 114              		.p2align 2,,3
 115              		.global	_Z5Snarev
 116              		.syntax unified
 117              		.thumb
 118              		.thumb_func
 119              		.fpu fpv5-d16
 121              	_Z5Snarev:
 122              		@ args = 0, pretend = 0, frame = 0
 123              		@ frame_needed = 0, uses_anonymous_args = 0
 124              		@ link register save eliminated.
 125 0000 0123     		movs	r3, #1
ARM GAS  /var/folders/sj/m2p5rq1x7lz4zl2q3d5y9hzm0000gn/T//ccW0HYIg.s 			page 3


 126 0002 0748     		ldr	r0, .L11
 127 0004 4FF07E51 		mov	r1, #1065353216
 128 0008 064A     		ldr	r2, .L11+4
 129 000a 10B4     		push	{r4}
 130 000c 064C     		ldr	r4, .L11+8
 131 000e 80F86C30 		strb	r3, [r0, #108]
 132 0012 84F86C30 		strb	r3, [r4, #108]
 133 0016 5160     		str	r1, [r2, #4]	@ float
 134 0018 5DF8044B 		ldr	r4, [sp], #4
 135 001c 7047     		bx	lr
 136              	.L12:
 137 001e 00BF     		.align	2
 138              	.L11:
 139 0020 00000000 		.word	.LANCHOR1
 140 0024 00000000 		.word	.LANCHOR0
 141 0028 00000000 		.word	.LANCHOR2
 143              		.section	.text._Z3Hatv,"ax",%progbits
 144              		.align	1
 145              		.p2align 2,,3
 146              		.global	_Z3Hatv
 147              		.syntax unified
 148              		.thumb
 149              		.thumb_func
 150              		.fpu fpv5-d16
 152              	_Z3Hatv:
 153              		@ args = 0, pretend = 0, frame = 0
 154              		@ frame_needed = 0, uses_anonymous_args = 0
 155              		@ link register save eliminated.
 156 0000 4FF07E52 		mov	r2, #1065353216
 157 0004 0349     		ldr	r1, .L14
 158 0006 0120     		movs	r0, #1
 159 0008 034B     		ldr	r3, .L14+4
 160 000a 81F8A400 		strb	r0, [r1, #164]
 161 000e 9A60     		str	r2, [r3, #8]	@ float
 162 0010 7047     		bx	lr
 163              	.L15:
 164 0012 00BF     		.align	2
 165              	.L14:
 166 0014 00000000 		.word	.LANCHOR2
 167 0018 00000000 		.word	.LANCHOR0
 169              		.section	.text._Z5Laserv,"ax",%progbits
 170              		.align	1
 171              		.p2align 2,,3
 172              		.global	_Z5Laserv
 173              		.syntax unified
 174              		.thumb
 175              		.thumb_func
 176              		.fpu fpv5-d16
 178              	_Z5Laserv:
 179              		@ args = 0, pretend = 0, frame = 0
 180              		@ frame_needed = 0, uses_anonymous_args = 0
 181              		@ link register save eliminated.
 182 0000 0123     		movs	r3, #1
 183 0002 0748     		ldr	r0, .L18
 184 0004 4FF07E51 		mov	r1, #1065353216
 185 0008 064A     		ldr	r2, .L18+4
 186 000a 10B4     		push	{r4}
ARM GAS  /var/folders/sj/m2p5rq1x7lz4zl2q3d5y9hzm0000gn/T//ccW0HYIg.s 			page 4


 187 000c 064C     		ldr	r4, .L18+8
 188 000e 80F8DC30 		strb	r3, [r0, #220]
 189 0012 84F8DC30 		strb	r3, [r4, #220]
 190 0016 D160     		str	r1, [r2, #12]	@ float
 191 0018 5DF8044B 		ldr	r4, [sp], #4
 192 001c 7047     		bx	lr
 193              	.L19:
 194 001e 00BF     		.align	2
 195              	.L18:
 196 0020 00000000 		.word	.LANCHOR1
 197 0024 00000000 		.word	.LANCHOR0
 198 0028 00000000 		.word	.LANCHOR2
 200              		.section	.text._Z3Tomv,"ax",%progbits
 201              		.align	1
 202              		.p2align 2,,3
 203              		.global	_Z3Tomv
 204              		.syntax unified
 205              		.thumb
 206              		.thumb_func
 207              		.fpu fpv5-d16
 209              	_Z3Tomv:
 210              		@ args = 0, pretend = 0, frame = 0
 211              		@ frame_needed = 0, uses_anonymous_args = 0
 212              		@ link register save eliminated.
 213 0000 0123     		movs	r3, #1
 214 0002 0748     		ldr	r0, .L22
 215 0004 4FF07E51 		mov	r1, #1065353216
 216 0008 064A     		ldr	r2, .L22+4
 217 000a 10B4     		push	{r4}
 218 000c 064C     		ldr	r4, .L22+8
 219 000e 80F81431 		strb	r3, [r0, #276]
 220 0012 84F81431 		strb	r3, [r4, #276]
 221 0016 1161     		str	r1, [r2, #16]	@ float
 222 0018 5DF8044B 		ldr	r4, [sp], #4
 223 001c 7047     		bx	lr
 224              	.L23:
 225 001e 00BF     		.align	2
 226              	.L22:
 227 0020 00000000 		.word	.LANCHOR1
 228 0024 00000000 		.word	.LANCHOR0
 229 0028 00000000 		.word	.LANCHOR2
 231              		.section	.text.__tcf_0,"ax",%progbits
 232              		.align	1
 233              		.p2align 2,,3
 234              		.syntax unified
 235              		.thumb
 236              		.thumb_func
 237              		.fpu fpv5-d16
 239              	__tcf_0:
 240              		@ args = 0, pretend = 0, frame = 0
 241              		@ frame_needed = 0, uses_anonymous_args = 0
 242              		@ link register save eliminated.
 243 0000 7047     		bx	lr
 245 0002 00BF     		.section	.text.__tcf_3,"ax",%progbits
 246              		.align	1
 247              		.p2align 2,,3
 248              		.syntax unified
ARM GAS  /var/folders/sj/m2p5rq1x7lz4zl2q3d5y9hzm0000gn/T//ccW0HYIg.s 			page 5


 249              		.thumb
 250              		.thumb_func
 251              		.fpu fpv5-d16
 253              	__tcf_3:
 254              		@ args = 0, pretend = 0, frame = 0
 255              		@ frame_needed = 0, uses_anonymous_args = 0
 256              		@ link register save eliminated.
 257 0000 7047     		bx	lr
 259 0002 00BF     		.section	.text.__tcf_4,"ax",%progbits
 260              		.align	1
 261              		.p2align 2,,3
 262              		.syntax unified
 263              		.thumb
 264              		.thumb_func
 265              		.fpu fpv5-d16
 267              	__tcf_4:
 268              		@ args = 0, pretend = 0, frame = 0
 269              		@ frame_needed = 0, uses_anonymous_args = 0
 270              		@ link register save eliminated.
 271 0000 7047     		bx	lr
 273 0002 00BF     		.section	.text.__tcf_1,"ax",%progbits
 274              		.align	1
 275              		.p2align 2,,3
 276              		.syntax unified
 277              		.thumb
 278              		.thumb_func
 279              		.fpu fpv5-d16
 281              	__tcf_1:
 282              		@ args = 0, pretend = 0, frame = 0
 283              		@ frame_needed = 0, uses_anonymous_args = 0
 284              		@ link register save eliminated.
 285 0000 7047     		bx	lr
 287 0002 00BF     		.section	.text.__tcf_2,"ax",%progbits
 288              		.align	1
 289              		.p2align 2,,3
 290              		.syntax unified
 291              		.thumb
 292              		.thumb_func
 293              		.fpu fpv5-d16
 295              	__tcf_2:
 296              		@ args = 0, pretend = 0, frame = 0
 297              		@ frame_needed = 0, uses_anonymous_args = 0
 298              		@ link register save eliminated.
 299 0000 7047     		bx	lr
 301 0002 00BF     		.section	.text._ZN5daisy16LedDriverPca9685ILi2ELb1EE14TxCpltCallbackEPvNS_9I2CHandle6ResultE,"axG"
 302              		.align	1
 303              		.p2align 2,,3
 304              		.weak	_ZN5daisy16LedDriverPca9685ILi2ELb1EE14TxCpltCallbackEPvNS_9I2CHandle6ResultE
 305              		.syntax unified
 306              		.thumb
 307              		.thumb_func
 308              		.fpu fpv5-d16
 310              	_ZN5daisy16LedDriverPca9685ILi2ELb1EE14TxCpltCallbackEPvNS_9I2CHandle6ResultE:
 311              		@ args = 0, pretend = 0, frame = 0
 312              		@ frame_needed = 0, uses_anonymous_args = 0
 313 0000 10B5     		push	{r4, lr}
 314 0002 037D     		ldrb	r3, [r0, #20]	@ zero_extendqisi2
ARM GAS  /var/folders/sj/m2p5rq1x7lz4zl2q3d5y9hzm0000gn/T//ccW0HYIg.s 			page 6


 315 0004 82B0     		sub	sp, sp, #8
 316 0006 0446     		mov	r4, r0
 317 0008 0133     		adds	r3, r3, #1
 318 000a 5BB2     		sxtb	r3, r3
 319 000c 012B     		cmp	r3, #1
 320 000e 0375     		strb	r3, [r0, #20]
 321 0010 03DD     		ble	.L30
 322 0012 FF23     		movs	r3, #255
 323 0014 0375     		strb	r3, [r0, #20]
 324              	.L29:
 325 0016 02B0     		add	sp, sp, #8
 326              		@ sp needed
 327 0018 10BD     		pop	{r4, pc}
 328              	.L30:
 329 001a 8168     		ldr	r1, [r0, #8]
 330 001c 03EB8312 		add	r2, r3, r3, lsl #6
 331 0020 0344     		add	r3, r3, r0
 332 0022 0A44     		add	r2, r2, r1
 333 0024 197B     		ldrb	r1, [r3, #12]	@ zero_extendqisi2
 334 0026 0A4B     		ldr	r3, .L36
 335 0028 41F04001 		orr	r1, r1, #64
 336 002c 0190     		str	r0, [sp, #4]
 337 002e 0093     		str	r3, [sp]
 338 0030 4123     		movs	r3, #65
 339 0032 FFF7FEFF 		bl	_ZN5daisy9I2CHandle11TransmitDmaEtPhtPFvPvNS0_6ResultEES2_
 340 0036 0028     		cmp	r0, #0
 341 0038 EDD0     		beq	.L29
 342 003a 2046     		mov	r0, r4
 343 003c FFF7FEFF 		bl	_ZNK5daisy9I2CHandle9GetConfigEv
 344 0040 0146     		mov	r1, r0
 345 0042 2046     		mov	r0, r4
 346 0044 02B0     		add	sp, sp, #8
 347              		@ sp needed
 348 0046 BDE81040 		pop	{r4, lr}
 349 004a FFF7FEBF 		b	_ZN5daisy9I2CHandle4InitERKNS0_6ConfigE
 350              	.L37:
 351 004e 00BF     		.align	2
 352              	.L36:
 353 0050 00000000 		.word	_ZN5daisy16LedDriverPca9685ILi2ELb1EE14TxCpltCallbackEPvNS_9I2CHandle6ResultE
 355              		.section	.text._Z10SetupDrumsf,"ax",%progbits
 356              		.align	1
 357              		.p2align 2,,3
 358              		.global	_Z10SetupDrumsf
 359              		.syntax unified
 360              		.thumb
 361              		.thumb_func
 362              		.fpu fpv5-d16
 364              	_Z10SetupDrumsf:
 365              		@ args = 0, pretend = 0, frame = 0
 366              		@ frame_needed = 0, uses_anonymous_args = 0
 367 0000 2DE9F84F 		push	{r3, r4, r5, r6, r7, r8, r9, r10, fp, lr}
 368 0004 694D     		ldr	r5, .L42
 369 0006 6A48     		ldr	r0, .L42+4
 370 0008 6A4C     		ldr	r4, .L42+8
 371 000a 6B4E     		ldr	r6, .L42+12
 372 000c 6B4F     		ldr	r7, .L42+16
 373 000e 04F1C80A 		add	r10, r4, #200
ARM GAS  /var/folders/sj/m2p5rq1x7lz4zl2q3d5y9hzm0000gn/T//ccW0HYIg.s 			page 7


 374 0012 DFF8EC91 		ldr	r9, .L42+84
 375 0016 2DED068B 		vpush.64	{d8, d9, d10}
 376 001a B0EE408A 		vmov.f32	s16, s0
 377 001e FFF7FEFF 		bl	_ZN5daisy9Parameter7ProcessEv
 378 0022 6748     		ldr	r0, .L42+20
 379 0024 85ED000A 		vstr.32	s0, [r5]
 380 0028 FFF7FEFF 		bl	_ZN5daisy9Parameter7ProcessEv
 381 002c 6548     		ldr	r0, .L42+24
 382 002e 85ED010A 		vstr.32	s0, [r5, #4]
 383 0032 FFF7FEFF 		bl	_ZN5daisy9Parameter7ProcessEv
 384 0036 6448     		ldr	r0, .L42+28
 385 0038 85ED020A 		vstr.32	s0, [r5, #8]
 386 003c FFF7FEFF 		bl	_ZN5daisy9Parameter7ProcessEv
 387 0040 6248     		ldr	r0, .L42+32
 388 0042 85ED030A 		vstr.32	s0, [r5, #12]
 389 0046 FFF7FEFF 		bl	_ZN5daisy9Parameter7ProcessEv
 390 004a 6148     		ldr	r0, .L42+36
 391 004c 85ED060A 		vstr.32	s0, [r5, #24]
 392 0050 FFF7FEFF 		bl	_ZN5daisy9Parameter7ProcessEv
 393 0054 F7EE007A 		vmov.f32	s15, #1.0e+0
 394 0058 5E4B     		ldr	r3, .L42+40
 395 005a 0122     		movs	r2, #1
 396 005c 85ED070A 		vstr.32	s0, [r5, #28]
 397 0060 87EE88AA 		vdiv.f32	s20, s15, s16
 398 0064 5C4D     		ldr	r5, .L42+44
 399 0066 C3ED007A 		vstr.32	s15, [r3]
 400 006a 5A60     		str	r2, [r3, #4]
 401 006c C3ED027A 		vstr.32	s15, [r3, #8]
 402 0070 DA60     		str	r2, [r3, #12]
 403 0072 C3ED047A 		vstr.32	s15, [r3, #16]
 404 0076 5A61     		str	r2, [r3, #20]
 405              	.L39:
 406 0078 F6EE009A 		vmov.f32	s19, #5.0e-1
 407 007c DFED578A 		vldr.32	s17, .L42+48
 408 0080 4FF00008 		mov	r8, #0
 409 0084 2046     		mov	r0, r4
 410 0086 C4ED028A 		vstr.32	s17, [r4, #8]
 411 008a B0EE680A 		vmov.f32	s0, s17
 412 008e 84ED038A 		vstr.32	s16, [r4, #12]
 413 0092 B7EE009A 		vmov.f32	s18, #1.0e+0
 414 0096 84ED04AA 		vstr.32	s20, [r4, #16]
 415 009a C4ED019A 		vstr.32	s19, [r4, #4]
 416 009e C4F81480 		str	r8, [r4, #20]	@ float
 417 00a2 FFF7FEFF 		bl	_ZN7daisysp10Oscillator12CalcPhaseIncEf
 418 00a6 F0EE407A 		vmov.f32	s15, s0
 419 00aa 0123     		movs	r3, #1
 420 00ac 0022     		movs	r2, #0
 421 00ae C4ED028A 		vstr.32	s17, [r4, #8]
 422 00b2 2046     		mov	r0, r4
 423 00b4 2270     		strb	r2, [r4]
 424 00b6 B0EE680A 		vmov.f32	s0, s17
 425 00ba 84F82530 		strb	r3, [r4, #37]
 426 00be 2834     		adds	r4, r4, #40
 427 00c0 04F8043C 		strb	r3, [r4, #-4]
 428 00c4 44ED047A 		vstr.32	s15, [r4, #-16]
 429 00c8 FFF7FEFF 		bl	_ZN7daisysp10Oscillator12CalcPhaseIncEf
 430 00cc F0EE407A 		vmov.f32	s15, s0
ARM GAS  /var/folders/sj/m2p5rq1x7lz4zl2q3d5y9hzm0000gn/T//ccW0HYIg.s 			page 8


 431 00d0 3046     		mov	r0, r6
 432 00d2 04ED099A 		vstr.32	s18, [r4, #-36]
 433 00d6 B0EE480A 		vmov.f32	s0, s16
 434 00da DFF828B1 		ldr	fp, .L42+88
 435 00de 44ED047A 		vstr.32	s15, [r4, #-16]
 436 00e2 3836     		adds	r6, r6, #56
 437 00e4 DFED3E8A 		vldr.32	s17, .L42+52
 438 00e8 FFF7FEFF 		bl	_ZN7daisysp5AdEnv4InitEf
 439 00ec 2846     		mov	r0, r5
 440 00ee B0EE480A 		vmov.f32	s0, s16
 441 00f2 46F830BC 		str	fp, [r6, #-48]	@ float
 442 00f6 3835     		adds	r5, r5, #56
 443 00f8 46ED0B8A 		vstr.32	s17, [r6, #-44]
 444 00fc 06ED089A 		vstr.32	s18, [r6, #-32]
 445 0100 46F8248C 		str	r8, [r6, #-36]	@ float
 446 0104 FFF7FEFF 		bl	_ZN7daisysp5AdEnv4InitEf
 447 0108 364B     		ldr	r3, .L42+56
 448 010a 3846     		mov	r0, r7
 449 010c B0EE480A 		vmov.f32	s0, s16
 450 0110 45F830BC 		str	fp, [r5, #-48]	@ float
 451 0114 45F8183C 		str	r3, [r5, #-24]	@ float
 452 0118 45ED0B8A 		vstr.32	s17, [r5, #-44]
 453 011c 05ED089A 		vstr.32	s18, [r5, #-32]
 454 0120 45F8248C 		str	r8, [r5, #-36]	@ float
 455 0124 FFF7FEFF 		bl	_ZN7daisysp5ATone4InitEf
 456 0128 D9F80030 		ldr	r3, [r9]	@ float
 457 012c 3846     		mov	r0, r7
 458 012e 1837     		adds	r7, r7, #24
 459 0130 47F80C3C 		str	r3, [r7, #-12]	@ float
 460 0134 FFF7FEFF 		bl	_ZN7daisysp5ATone21CalculateCoefficientsEv
 461 0138 5445     		cmp	r4, r10
 462 013a 9DD1     		bne	.L39
 463 013c B0EE480A 		vmov.f32	s0, s16
 464 0140 2948     		ldr	r0, .L42+60
 465 0142 2A4D     		ldr	r5, .L42+64
 466 0144 FFF7FEFF 		bl	_ZN7daisysp3Svf4InitEf
 467 0148 B0EE690A 		vmov.f32	s0, s19
 468 014c 2648     		ldr	r0, .L42+60
 469 014e FFF7FEFF 		bl	_ZN7daisysp3Svf6SetResEf
 470 0152 9FED270A 		vldr.32	s0, .L42+68
 471 0156 2448     		ldr	r0, .L42+60
 472 0158 FFF7FEFF 		bl	_ZN7daisysp3Svf7SetFreqEf
 473 015c B0EE480A 		vmov.f32	s0, s16
 474 0160 2846     		mov	r0, r5
 475 0162 244C     		ldr	r4, .L42+72
 476 0164 FFF7FEFF 		bl	_ZN7daisysp3Svf4InitEf
 477 0168 9FED230A 		vldr.32	s0, .L42+76
 478 016c 2846     		mov	r0, r5
 479 016e FFF7FEFF 		bl	_ZN7daisysp3Svf7SetFreqEf
 480 0172 B0EE490A 		vmov.f32	s0, s18
 481 0176 2846     		mov	r0, r5
 482 0178 FFF7FEFF 		bl	_ZN7daisysp3Svf6SetResEf
 483 017c B0EE480A 		vmov.f32	s0, s16
 484 0180 2046     		mov	r0, r4
 485 0182 85ED039A 		vstr.32	s18, [r5, #12]
 486 0186 FFF7FEFF 		bl	_ZN7daisysp3Svf4InitEf
 487 018a B0EE690A 		vmov.f32	s0, s19
ARM GAS  /var/folders/sj/m2p5rq1x7lz4zl2q3d5y9hzm0000gn/T//ccW0HYIg.s 			page 9


 488 018e 2046     		mov	r0, r4
 489 0190 FFF7FEFF 		bl	_ZN7daisysp3Svf6SetResEf
 490 0194 9FED190A 		vldr.32	s0, .L42+80
 491 0198 2046     		mov	r0, r4
 492 019a FFF7FEFF 		bl	_ZN7daisysp3Svf7SetFreqEf
 493 019e 84ED039A 		vstr.32	s18, [r4, #12]
 494 01a2 BDEC068B 		vldm	sp!, {d8-d10}
 495 01a6 BDE8F88F 		pop	{r3, r4, r5, r6, r7, r8, r9, r10, fp, pc}
 496              	.L43:
 497 01aa 00BF     		.align	2
 498              	.L42:
 499 01ac 00000000 		.word	.LANCHOR4
 500 01b0 00000000 		.word	.LANCHOR3
 501 01b4 00000000 		.word	.LANCHOR11
 502 01b8 00000000 		.word	.LANCHOR2
 503 01bc 00000000 		.word	.LANCHOR12
 504 01c0 00000000 		.word	.LANCHOR5
 505 01c4 00000000 		.word	.LANCHOR6
 506 01c8 00000000 		.word	.LANCHOR7
 507 01cc 00000000 		.word	.LANCHOR8
 508 01d0 00000000 		.word	.LANCHOR9
 509 01d4 00000000 		.word	.LANCHOR10
 510 01d8 00000000 		.word	.LANCHOR1
 511 01dc 0000C842 		.word	1120403456
 512 01e0 CDCC4C3E 		.word	1045220557
 513 01e4 000048C2 		.word	-1035468800
 514 01e8 00000000 		.word	.LANCHOR14
 515 01ec 00000000 		.word	.LANCHOR15
 516 01f0 0000FA45 		.word	1174011904
 517 01f4 00000000 		.word	.LANCHOR16
 518 01f8 0000A042 		.word	1117782016
 519 01fc 00007A44 		.word	1148846080
 520 0200 00000000 		.word	.LANCHOR13
 521 0204 0AD7233C 		.word	1008981770
 523              		.section	.text._Z6SetSeqPbb,"ax",%progbits
 524              		.align	1
 525              		.p2align 2,,3
 526              		.global	_Z6SetSeqPbb
 527              		.syntax unified
 528              		.thumb
 529              		.thumb_func
 530              		.fpu fpv5-d16
 532              	_Z6SetSeqPbb:
 533              		@ args = 0, pretend = 0, frame = 0
 534              		@ frame_needed = 0, uses_anonymous_args = 0
 535              		@ link register save eliminated.
 536 0000 2022     		movs	r2, #32
 537 0002 FFF7FEBF 		b	memset
 539 0006 00BF     		.section	.text._Z12UpdateSwitchv,"ax",%progbits
 540              		.align	1
 541              		.p2align 2,,3
 542              		.global	_Z12UpdateSwitchv
 543              		.syntax unified
 544              		.thumb
 545              		.thumb_func
 546              		.fpu fpv5-d16
 548              	_Z12UpdateSwitchv:
ARM GAS  /var/folders/sj/m2p5rq1x7lz4zl2q3d5y9hzm0000gn/T//ccW0HYIg.s 			page 10


 549              		@ args = 0, pretend = 0, frame = 0
 550              		@ frame_needed = 0, uses_anonymous_args = 0
 551 0000 10B5     		push	{r4, lr}
 552 0002 124C     		ldr	r4, .L51
 553 0004 94F86532 		ldrb	r3, [r4, #613]	@ zero_extendqisi2
 554 0008 7F2B     		cmp	r3, #127
 555 000a 05D1     		bne	.L46
 556 000c 104A     		ldr	r2, .L51+4
 557 000e 114B     		ldr	r3, .L51+8
 558 0010 1278     		ldrb	r2, [r2]	@ zero_extendqisi2
 559 0012 53F82230 		ldr	r3, [r3, r2, lsl #2]
 560 0016 9847     		blx	r3
 561              	.L46:
 562 0018 94F87532 		ldrb	r3, [r4, #629]	@ zero_extendqisi2
 563 001c 7F2B     		cmp	r3, #127
 564 001e 00D0     		beq	.L50
 565 0020 10BD     		pop	{r4, pc}
 566              	.L50:
 567 0022 0D48     		ldr	r0, .L51+12
 568 0024 D0ED007A 		vldr.32	s15, [r0]
 569 0028 F5EE407A 		vcmp.f32	s15, #0
 570 002c F1EE10FA 		vmrs	APSR_nzcv, FPSCR
 571 0030 05D0     		beq	.L48
 572 0032 9FED0A0A 		vldr.32	s0, .L51+16
 573 0036 BDE81040 		pop	{r4, lr}
 574 003a FFF7FEBF 		b	_ZN7daisysp5Metro7SetFreqEf
 575              	.L48:
 576 003e 084B     		ldr	r3, .L51+20
 577 0040 BDE81040 		pop	{r4, lr}
 578 0044 93ED000A 		vldr.32	s0, [r3]
 579 0048 FFF7FEBF 		b	_ZN7daisysp5Metro7SetFreqEf
 580              	.L52:
 581              		.align	2
 582              	.L51:
 583 004c 00000000 		.word	.LANCHOR17
 584 0050 00000000 		.word	.LANCHOR19
 585 0054 00000000 		.word	.LANCHOR18
 586 0058 00000000 		.word	.LANCHOR20
 587 005c 00000000 		.word	0
 588 0060 00000000 		.word	.LANCHOR21
 590              		.section	.text.startup.main,"ax",%progbits
 591              		.align	1
 592              		.p2align 2,,3
 593              		.global	main
 594              		.syntax unified
 595              		.thumb
 596              		.thumb_func
 597              		.fpu fpv5-d16
 599              	main:
 600              		@ args = 0, pretend = 0, frame = 32
 601              		@ frame_needed = 0, uses_anonymous_args = 0
 602 0000 30B5     		push	{r4, r5, lr}
 603 0002 0021     		movs	r1, #0
 604 0004 5548     		ldr	r0, .L56
 605 0006 564D     		ldr	r5, .L56+4
 606 0008 2DED028B 		vpush.64	{d8}
 607 000c 89B0     		sub	sp, sp, #36
ARM GAS  /var/folders/sj/m2p5rq1x7lz4zl2q3d5y9hzm0000gn/T//ccW0HYIg.s 			page 11


 608 000e FFF7FEFF 		bl	_ZN5daisy10DaisyField4InitEb
 609 0012 5248     		ldr	r0, .L56
 610 0014 FFF7FEFF 		bl	_ZN5daisy10DaisyField15AudioSampleRateEv
 611 0018 A5F52070 		sub	r0, r5, #640
 612 001c F0EE408A 		vmov.f32	s17, s0
 613 0020 01AC     		add	r4, sp, #4
 614 0022 FFF7FEFF 		bl	_ZN5daisy10DaisyField17AudioCallbackRateEv
 615 0026 F7EE000A 		vmov.f32	s1, #1.0e+0
 616 002a B0EE408A 		vmov.f32	s16, s0
 617 002e 9FED4D0A 		vldr.32	s0, .L56+8
 618 0032 0FCD     		ldmia	r5!, {r0, r1, r2, r3}
 619 0034 0FC4     		stmia	r4!, {r0, r1, r2, r3}
 620 0036 95E80700 		ldm	r5, {r0, r1, r2}
 621 003a 84E80700 		stm	r4, {r0, r1, r2}
 622 003e 0122     		movs	r2, #1
 623 0040 01A9     		add	r1, sp, #4
 624 0042 4948     		ldr	r0, .L56+12
 625 0044 FFF7FEFF 		bl	_ZN5daisy9Parameter4InitENS_13AnalogControlEffNS0_5CurveE
 626 0048 05F10C0C 		add	ip, r5, #12
 627 004c 0DF1040E 		add	lr, sp, #4
 628 0050 F7EE000A 		vmov.f32	s1, #1.0e+0
 629 0054 9FED430A 		vldr.32	s0, .L56+8
 630 0058 BCE80F00 		ldmia	ip!, {r0, r1, r2, r3}
 631 005c AEE80F00 		stmia	lr!, {r0, r1, r2, r3}
 632 0060 9CE80700 		ldm	ip, {r0, r1, r2}
 633 0064 84E80700 		stm	r4, {r0, r1, r2}
 634 0068 0022     		movs	r2, #0
 635 006a 01A9     		add	r1, sp, #4
 636 006c 3F48     		ldr	r0, .L56+16
 637 006e FFF7FEFF 		bl	_ZN5daisy9Parameter4InitENS_13AnalogControlEffNS0_5CurveE
 638 0072 05F1280C 		add	ip, r5, #40
 639 0076 0DF1040E 		add	lr, sp, #4
 640 007a F7EE000A 		vmov.f32	s1, #1.0e+0
 641 007e 9FED390A 		vldr.32	s0, .L56+8
 642 0082 BCE80F00 		ldmia	ip!, {r0, r1, r2, r3}
 643 0086 AEE80F00 		stmia	lr!, {r0, r1, r2, r3}
 644 008a 9CE80700 		ldm	ip, {r0, r1, r2}
 645 008e 84E80700 		stm	r4, {r0, r1, r2}
 646 0092 0022     		movs	r2, #0
 647 0094 01A9     		add	r1, sp, #4
 648 0096 3648     		ldr	r0, .L56+20
 649 0098 FFF7FEFF 		bl	_ZN5daisy9Parameter4InitENS_13AnalogControlEffNS0_5CurveE
 650 009c 05F1440C 		add	ip, r5, #68
 651 00a0 0DF1040E 		add	lr, sp, #4
 652 00a4 F7EE000A 		vmov.f32	s1, #1.0e+0
 653 00a8 9FED2E0A 		vldr.32	s0, .L56+8
 654 00ac BCE80F00 		ldmia	ip!, {r0, r1, r2, r3}
 655 00b0 AEE80F00 		stmia	lr!, {r0, r1, r2, r3}
 656 00b4 9CE80700 		ldm	ip, {r0, r1, r2}
 657 00b8 84E80700 		stm	r4, {r0, r1, r2}
 658 00bc 0022     		movs	r2, #0
 659 00be 01A9     		add	r1, sp, #4
 660 00c0 2C48     		ldr	r0, .L56+24
 661 00c2 FFF7FEFF 		bl	_ZN5daisy9Parameter4InitENS_13AnalogControlEffNS0_5CurveE
 662 00c6 05F1980C 		add	ip, r5, #152
 663 00ca 0DF1040E 		add	lr, sp, #4
 664 00ce F3EE040A 		vmov.f32	s1, #2.0e+1
ARM GAS  /var/folders/sj/m2p5rq1x7lz4zl2q3d5y9hzm0000gn/T//ccW0HYIg.s 			page 12


 665 00d2 B0EE000A 		vmov.f32	s0, #2.0e+0
 666 00d6 BCE80F00 		ldmia	ip!, {r0, r1, r2, r3}
 667 00da AEE80F00 		stmia	lr!, {r0, r1, r2, r3}
 668 00de 9CE80700 		ldm	ip, {r0, r1, r2}
 669 00e2 84E80700 		stm	r4, {r0, r1, r2}
 670 00e6 0222     		movs	r2, #2
 671 00e8 01A9     		add	r1, sp, #4
 672 00ea 2348     		ldr	r0, .L56+28
 673 00ec FFF7FEFF 		bl	_ZN5daisy9Parameter4InitENS_13AnalogControlEffNS0_5CurveE
 674 00f0 05F1B40C 		add	ip, r5, #180
 675 00f4 0DF1040E 		add	lr, sp, #4
 676 00f8 F1EE020A 		vmov.f32	s1, #4.5e+0
 677 00fc B6EE000A 		vmov.f32	s0, #5.0e-1
 678 0100 BCE80F00 		ldmia	ip!, {r0, r1, r2, r3}
 679 0104 AEE80F00 		stmia	lr!, {r0, r1, r2, r3}
 680 0108 9CE80700 		ldm	ip, {r0, r1, r2}
 681 010c 84E80700 		stm	r4, {r0, r1, r2}
 682 0110 0022     		movs	r2, #0
 683 0112 01A9     		add	r1, sp, #4
 684 0114 1948     		ldr	r0, .L56+32
 685 0116 FFF7FEFF 		bl	_ZN5daisy9Parameter4InitENS_13AnalogControlEffNS0_5CurveE
 686 011a B0EE680A 		vmov.f32	s0, s17
 687 011e FFF7FEFF 		bl	_Z10SetupDrumsf
 688 0122 F0EE480A 		vmov.f32	s1, s16
 689 0126 B0EE080A 		vmov.f32	s0, #3.0e+0
 690 012a 1548     		ldr	r0, .L56+36
 691 012c FFF7FEFF 		bl	_ZN7daisysp5Metro4InitEff
 692 0130 0021     		movs	r1, #0
 693 0132 A022     		movs	r2, #160
 694 0134 1348     		ldr	r0, .L56+40
 695 0136 FFF7FEFF 		bl	memset
 696 013a 134B     		ldr	r3, .L56+44
 697 013c 0022     		movs	r2, #0
 698 013e A5F52470 		sub	r0, r5, #656
 699 0142 C3E90022 		strd	r2, r2, [r3]
 700 0146 C3E90222 		strd	r2, r2, [r3, #8]
 701 014a 1A61     		str	r2, [r3, #16]
 702 014c FFF7FEFF 		bl	_ZN5daisy10DaisyField8StartAdcEv
 703 0150 0E49     		ldr	r1, .L56+48
 704 0152 A5F52470 		sub	r0, r5, #656
 705 0156 FFF7FEFF 		bl	_ZN5daisy10DaisyField10StartAudioEPFvPfS1_jE
 706              	.L54:
 707 015a FEE7     		b	.L54
 708              	.L57:
 709              		.align	2
 710              	.L56:
 711 015c 00000000 		.word	.LANCHOR17
 712 0160 80020000 		.word	.LANCHOR17+640
 713 0164 00000000 		.word	0
 714 0168 00000000 		.word	.LANCHOR3
 715 016c 00000000 		.word	.LANCHOR5
 716 0170 00000000 		.word	.LANCHOR6
 717 0174 00000000 		.word	.LANCHOR7
 718 0178 00000000 		.word	.LANCHOR8
 719 017c 00000000 		.word	.LANCHOR9
 720 0180 00000000 		.word	.LANCHOR20
 721 0184 00000000 		.word	.LANCHOR22
ARM GAS  /var/folders/sj/m2p5rq1x7lz4zl2q3d5y9hzm0000gn/T//ccW0HYIg.s 			page 13


 722 0188 00000000 		.word	.LANCHOR4
 723 018c 00000000 		.word	_Z13AudioCallbackPfS_j
 725              		.section	.text._Z14IncrementStepsv,"ax",%progbits
 726              		.align	1
 727              		.p2align 2,,3
 728              		.global	_Z14IncrementStepsv
 729              		.syntax unified
 730              		.thumb
 731              		.thumb_func
 732              		.fpu fpv5-d16
 734              	_Z14IncrementStepsv:
 735              		@ args = 0, pretend = 0, frame = 0
 736              		@ frame_needed = 0, uses_anonymous_args = 0
 737              		@ link register save eliminated.
 738 0000 034A     		ldr	r2, .L59
 739 0002 1378     		ldrb	r3, [r2]	@ zero_extendqisi2
 740 0004 0133     		adds	r3, r3, #1
 741 0006 03F00F03 		and	r3, r3, #15
 742 000a 1370     		strb	r3, [r2]
 743 000c 7047     		bx	lr
 744              	.L60:
 745 000e 00BF     		.align	2
 746              	.L59:
 747 0010 00000000 		.word	.LANCHOR23
 749              		.section	.text._Z11ProcessTickv,"ax",%progbits
 750              		.align	1
 751              		.p2align 2,,3
 752              		.global	_Z11ProcessTickv
 753              		.syntax unified
 754              		.thumb
 755              		.thumb_func
 756              		.fpu fpv5-d16
 758              	_Z11ProcessTickv:
 759              		@ args = 0, pretend = 0, frame = 0
 760              		@ frame_needed = 0, uses_anonymous_args = 0
 761 0000 70B5     		push	{r4, r5, r6, lr}
 762 0002 1148     		ldr	r0, .L78
 763 0004 FFF7FEFF 		bl	_ZN7daisysp5Metro7ProcessEv
 764 0008 E0B1     		cbz	r0, .L61
 765 000a 104D     		ldr	r5, .L78+4
 766 000c 0024     		movs	r4, #0
 767 000e 104E     		ldr	r6, .L78+8
 768 0010 2A78     		ldrb	r2, [r5]	@ zero_extendqisi2
 769 0012 06EB4413 		add	r3, r6, r4, lsl #5
 770 0016 0F49     		ldr	r1, .L78+12
 771 0018 0132     		adds	r2, r2, #1
 772 001a 02F00F02 		and	r2, r2, #15
 773 001e 9B5C     		ldrb	r3, [r3, r2]	@ zero_extendqisi2
 774 0020 2A70     		strb	r2, [r5]
 775 0022 13B1     		cbz	r3, .L63
 776              	.L76:
 777 0024 51F82430 		ldr	r3, [r1, r4, lsl #2]
 778 0028 9847     		blx	r3
 779              	.L63:
 780 002a 0134     		adds	r4, r4, #1
 781 002c 052C     		cmp	r4, #5
 782 002e 09D0     		beq	.L61
ARM GAS  /var/folders/sj/m2p5rq1x7lz4zl2q3d5y9hzm0000gn/T//ccW0HYIg.s 			page 14


 783              	.L77:
 784 0030 2A78     		ldrb	r2, [r5]	@ zero_extendqisi2
 785 0032 06EB4413 		add	r3, r6, r4, lsl #5
 786 0036 0749     		ldr	r1, .L78+12
 787 0038 9B5C     		ldrb	r3, [r3, r2]	@ zero_extendqisi2
 788 003a 002B     		cmp	r3, #0
 789 003c F2D1     		bne	.L76
 790 003e 0134     		adds	r4, r4, #1
 791 0040 052C     		cmp	r4, #5
 792 0042 F5D1     		bne	.L77
 793              	.L61:
 794 0044 70BD     		pop	{r4, r5, r6, pc}
 795              	.L79:
 796 0046 00BF     		.align	2
 797              	.L78:
 798 0048 00000000 		.word	.LANCHOR20
 799 004c 00000000 		.word	.LANCHOR23
 800 0050 00000000 		.word	.LANCHOR22
 801 0054 00000000 		.word	.LANCHOR18
 803              		.section	.text._Z10UpdateLedsv,"ax",%progbits
 804              		.align	1
 805              		.p2align 2,,3
 806              		.global	_Z10UpdateLedsv
 807              		.syntax unified
 808              		.thumb
 809              		.thumb_func
 810              		.fpu fpv5-d16
 812              	_Z10UpdateLedsv:
 813              		@ args = 0, pretend = 0, frame = 0
 814              		@ frame_needed = 0, uses_anonymous_args = 0
 815 0000 2DE9F041 		push	{r4, r5, r6, r7, r8, lr}
 816 0004 DFF83081 		ldr	r8, .L100+32
 817 0008 82B0     		sub	sp, sp, #8
 818 000a 0024     		movs	r4, #0
 819 000c 424E     		ldr	r6, .L100
 820 000e 434D     		ldr	r5, .L100+4
 821 0010 434F     		ldr	r7, .L100+8
 822 0012 2FE0     		b	.L85
 823              	.L82:
 824 0014 434A     		ldr	r2, .L100+12
 825 0016 444B     		ldr	r3, .L100+16
 826 0018 1278     		ldrb	r2, [r2]	@ zero_extendqisi2
 827 001a 03EB4213 		add	r3, r3, r2, lsl #5
 828 001e 195D     		ldrb	r1, [r3, r4]	@ zero_extendqisi2
 829 0020 0029     		cmp	r1, #0
 830 0022 3DD0     		beq	.L84
 831 0024 414B     		ldr	r3, .L100+20
 832 0026 B221     		movs	r1, #178
 833 0028 2B60     		str	r3, [r5]	@ float
 834              	.L83:
 835 002a 58F8043F 		ldr	r3, [r8, #4]!
 836 002e 07EB4101 		add	r1, r7, r1, lsl #1
 837 0032 FA6C     		ldr	r2, [r7, #76]
 838 0034 40F6FE7C 		movw	ip, #4094
 839 0038 C3F30710 		ubfx	r0, r3, #4, #8
 840 003c 03F00F03 		and	r3, r3, #15
 841 0040 B1F85EE0 		ldrh	lr, [r1, #94]
ARM GAS  /var/folders/sj/m2p5rq1x7lz4zl2q3d5y9hzm0000gn/T//ccW0HYIg.s 			page 15


 842 0044 00EB8010 		add	r0, r0, r0, lsl #6
 843 0048 E645     		cmp	lr, ip
 844 004a 00EB8303 		add	r3, r0, r3, lsl #2
 845 004e 1344     		add	r3, r3, r2
 846 0050 B3F80110 		ldrh	r1, [r3, #1]	@ unaligned
 847 0054 C1F30B01 		ubfx	r1, r1, #0, #12
 848 0058 0EEB0100 		add	r0, lr, r1
 849 005c C0F30B00 		ubfx	r0, r0, #0, #12
 850 0060 A3F80300 		strh	r0, [r3, #3]	@ unaligned
 851 0064 01D9     		bls	.L90
 852 0066 41F48051 		orr	r1, r1, #4096
 853              	.L90:
 854 006a 0134     		adds	r4, r4, #1
 855 006c A3F80110 		strh	r1, [r3, #1]	@ unaligned
 856 0070 102C     		cmp	r4, #16
 857 0072 18D0     		beq	.L98
 858              	.L85:
 859 0074 2146     		mov	r1, r4
 860 0076 2A48     		ldr	r0, .L100+8
 861 0078 FFF7FEFF 		bl	_ZNK5daisy10DaisyField18KeyboardRisingEdgeEj
 862 007c 40B1     		cbz	r0, .L81
 863 007e 294A     		ldr	r2, .L100+12
 864 0080 294B     		ldr	r3, .L100+16
 865 0082 1278     		ldrb	r2, [r2]	@ zero_extendqisi2
 866 0084 03EB4213 		add	r3, r3, r2, lsl #5
 867 0088 1A5D     		ldrb	r2, [r3, r4]	@ zero_extendqisi2
 868 008a 82F00102 		eor	r2, r2, #1
 869 008e 1A55     		strb	r2, [r3, r4]
 870              	.L81:
 871 0090 3378     		ldrb	r3, [r6]	@ zero_extendqisi2
 872 0092 A342     		cmp	r3, r4
 873 0094 BED1     		bne	.L82
 874 0096 4FF07E53 		mov	r3, #1065353216
 875 009a FF21     		movs	r1, #255
 876 009c 2B60     		str	r3, [r5]	@ float
 877 009e C4E7     		b	.L83
 878              	.L84:
 879 00a0 0023     		movs	r3, #0
 880 00a2 2B60     		str	r3, [r5]	@ float
 881 00a4 C1E7     		b	.L83
 882              	.L98:
 883 00a6 396D     		ldr	r1, [r7, #80]
 884 00a8 0023     		movs	r3, #0
 885 00aa C7E91312 		strd	r1, r2, [r7, #76]
 886              	.L86:
 887 00ae 02EB8304 		add	r4, r2, r3, lsl #2
 888 00b2 01EB8300 		add	r0, r1, r3, lsl #2
 889 00b6 0133     		adds	r3, r3, #1
 890 00b8 B4F80340 		ldrh	r4, [r4, #3]	@ unaligned
 891 00bc 102B     		cmp	r3, #16
 892 00be A0F80340 		strh	r4, [r0, #3]	@ unaligned
 893 00c2 F4D1     		bne	.L86
 894 00c4 0023     		movs	r3, #0
 895              	.L87:
 896 00c6 02EB8304 		add	r4, r2, r3, lsl #2
 897 00ca 01EB8300 		add	r0, r1, r3, lsl #2
 898 00ce 0133     		adds	r3, r3, #1
ARM GAS  /var/folders/sj/m2p5rq1x7lz4zl2q3d5y9hzm0000gn/T//ccW0HYIg.s 			page 16


 899 00d0 B4F84440 		ldrh	r4, [r4, #68]	@ unaligned
 900 00d4 102B     		cmp	r3, #16
 901 00d6 A0F84440 		strh	r4, [r0, #68]	@ unaligned
 902 00da F4D1     		bne	.L87
 903 00dc 144C     		ldr	r4, .L100+24
 904 00de 0023     		movs	r3, #0
 905 00e0 1448     		ldr	r0, .L100+28
 906 00e2 97F85410 		ldrb	r1, [r7, #84]	@ zero_extendqisi2
 907 00e6 0090     		str	r0, [sp]
 908 00e8 2046     		mov	r0, r4
 909 00ea 87F85C30 		strb	r3, [r7, #92]
 910 00ee 41F04001 		orr	r1, r1, #64
 911 00f2 4123     		movs	r3, #65
 912 00f4 0194     		str	r4, [sp, #4]
 913 00f6 FFF7FEFF 		bl	_ZN5daisy9I2CHandle11TransmitDmaEtPhtPFvPvNS0_6ResultEES2_
 914 00fa 10B9     		cbnz	r0, .L99
 915 00fc 02B0     		add	sp, sp, #8
 916              		@ sp needed
 917 00fe BDE8F081 		pop	{r4, r5, r6, r7, r8, pc}
 918              	.L99:
 919 0102 2046     		mov	r0, r4
 920 0104 FFF7FEFF 		bl	_ZNK5daisy9I2CHandle9GetConfigEv
 921 0108 0146     		mov	r1, r0
 922 010a 2046     		mov	r0, r4
 923 010c 02B0     		add	sp, sp, #8
 924              		@ sp needed
 925 010e BDE8F041 		pop	{r4, r5, r6, r7, r8, lr}
 926 0112 FFF7FEBF 		b	_ZN5daisy9I2CHandle4InitERKNS0_6ConfigE
 927              	.L101:
 928 0116 00BF     		.align	2
 929              	.L100:
 930 0118 00000000 		.word	.LANCHOR23
 931 011c 00000000 		.word	.LANCHOR25
 932 0120 00000000 		.word	.LANCHOR17
 933 0124 00000000 		.word	.LANCHOR19
 934 0128 00000000 		.word	.LANCHOR22
 935 012c 3333333F 		.word	1060320051
 936 0130 48000000 		.word	.LANCHOR17+72
 937 0134 00000000 		.word	_ZN5daisy16LedDriverPca9685ILi2ELb1EE14TxCpltCallbackEPvNS_9I2CHandle6ResultE
 938 0138 FCFFFFFF 		.word	.LANCHOR24-4
 940              		.section	.text._Z10UpdateVarsv,"ax",%progbits
 941              		.align	1
 942              		.p2align 2,,3
 943              		.global	_Z10UpdateVarsv
 944              		.syntax unified
 945              		.thumb
 946              		.thumb_func
 947              		.fpu fpv5-d16
 949              	_Z10UpdateVarsv:
 950              		@ args = 0, pretend = 0, frame = 0
 951              		@ frame_needed = 0, uses_anonymous_args = 0
 952 0000 2DE9F047 		push	{r4, r5, r6, r7, r8, r9, r10, lr}
 953 0004 5848     		ldr	r0, .L114+8
 954 0006 594C     		ldr	r4, .L114+12
 955 0008 FFF7FEFF 		bl	_ZN5daisy9Parameter7ProcessEv
 956 000c 5848     		ldr	r0, .L114+16
 957 000e 84ED000A 		vstr.32	s0, [r4]
ARM GAS  /var/folders/sj/m2p5rq1x7lz4zl2q3d5y9hzm0000gn/T//ccW0HYIg.s 			page 17


 958 0012 FFF7FEFF 		bl	_ZN5daisy9Parameter7ProcessEv
 959 0016 5748     		ldr	r0, .L114+20
 960 0018 84ED010A 		vstr.32	s0, [r4, #4]
 961 001c FFF7FEFF 		bl	_ZN5daisy9Parameter7ProcessEv
 962 0020 5548     		ldr	r0, .L114+24
 963 0022 564D     		ldr	r5, .L114+28
 964 0024 84ED020A 		vstr.32	s0, [r4, #8]
 965 0028 FFF7FEFF 		bl	_ZN5daisy9Parameter7ProcessEv
 966 002c 5448     		ldr	r0, .L114+32
 967 002e 84ED030A 		vstr.32	s0, [r4, #12]
 968 0032 FFF7FEFF 		bl	_ZN5daisy9Parameter7ProcessEv
 969 0036 5348     		ldr	r0, .L114+36
 970 0038 534E     		ldr	r6, .L114+40
 971 003a 84ED060A 		vstr.32	s0, [r4, #24]
 972 003e FFF7FEFF 		bl	_ZN5daisy9Parameter7ProcessEv
 973 0042 2978     		ldrb	r1, [r5]	@ zero_extendqisi2
 974 0044 2046     		mov	r0, r4
 975 0046 514A     		ldr	r2, .L114+44
 976 0048 0023     		movs	r3, #0
 977 004a 06EB0111 		add	r1, r6, r1, lsl #4
 978 004e 84ED070A 		vstr.32	s0, [r4, #28]
 979              	.L106:
 980 0052 F0EC016A 		vldmia.32	r0!, {s13}
 981 0056 03F1010C 		add	ip, r3, #1
 982 005a B2EC017A 		vldmia.32	r2!, {s14}
 983 005e 36EEC77A 		vsub.f32	s14, s13, s14
 984 0062 9FED3F5B 		vldr.64	d5, .L114
 985 0066 B0EEC77A 		vabs.f32	s14, s14
 986 006a B7EEC77A 		vcvt.f64.f32	d7, s14
 987 006e B4EEC57B 		vcmpe.f64	d7, d5
 988 0072 F1EE10FA 		vmrs	APSR_nzcv, FPSCR
 989 0076 05DD     		ble	.L103
 990 0078 032B     		cmp	r3, #3
 991 007a 42ED016A 		vstr.32	s13, [r2, #-4]
 992 007e 98BF     		it	ls
 993 0080 C1ED006A 		vstrls.32	s13, [r1]
 994              	.L103:
 995 0084 5FFA8CF3 		uxtb	r3, ip
 996 0088 0431     		adds	r1, r1, #4
 997 008a 082B     		cmp	r3, #8
 998 008c E1D1     		bne	.L106
 999 008e 3E4B     		ldr	r3, .L114+40
 1000 0090 DFF81491 		ldr	r9, .L114+72
 1001 0094 DFF814A1 		ldr	r10, .L114+76
 1002 0098 03F15007 		add	r7, r3, #80
 1003 009c DFF81081 		ldr	r8, .L114+80
 1004 00a0 4946     		mov	r1, r9
 1005 00a2 3B4A     		ldr	r2, .L114+48
 1006 00a4 D446     		mov	ip, r10
 1007 00a6 4046     		mov	r0, r8
 1008              	.L107:
 1009 00a8 D3ED016A 		vldr.32	s13, [r3, #4]
 1010 00ac 1033     		adds	r3, r3, #16
 1011 00ae BCEC017A 		vldmia.32	ip!, {s14}
 1012 00b2 3832     		adds	r2, r2, #56
 1013 00b4 F0EC017A 		vldmia.32	r0!, {s15}
 1014 00b8 3831     		adds	r1, r1, #56
ARM GAS  /var/folders/sj/m2p5rq1x7lz4zl2q3d5y9hzm0000gn/T//ccW0HYIg.s 			page 18


 1015 00ba 53F810EC 		ldr	lr, [r3, #-16]	@ float
 1016 00be 9F42     		cmp	r7, r3
 1017 00c0 E6EE877A 		vfma.f32	s15, s13, s14
 1018 00c4 41F820EC 		str	lr, [r1, #-32]	@ float
 1019 00c8 42ED0B7A 		vstr.32	s15, [r2, #-44]
 1020 00cc ECD1     		bne	.L107
 1021 00ce 96ED026A 		vldr.32	s12, [r6, #8]
 1022 00d2 9AED007A 		vldr.32	s14, [r10]
 1023 00d6 D8ED007A 		vldr.32	s15, [r8]
 1024 00da 2E4F     		ldr	r7, .L114+52
 1025 00dc E6EE077A 		vfma.f32	s15, s12, s14
 1026 00e0 DFF8D080 		ldr	r8, .L114+84
 1027 00e4 D6ED046A 		vldr.32	s13, [r6, #16]
 1028 00e8 98ED017A 		vldr.32	s14, [r8, #4]
 1029 00ec 97ED010A 		vldr.32	s0, [r7, #4]
 1030 00f0 2948     		ldr	r0, .L114+56
 1031 00f2 A6EE870A 		vfma.f32	s0, s13, s14
 1032 00f6 C9ED037A 		vstr.32	s15, [r9, #12]
 1033 00fa FFF7FEFF 		bl	_ZN7daisysp3Svf7SetFreqEf
 1034 00fe 96ED060A 		vldr.32	s0, [r6, #24]
 1035 0102 2548     		ldr	r0, .L114+56
 1036 0104 FFF7FEFF 		bl	_ZN7daisysp3Svf6SetResEf
 1037 0108 D8ED027A 		vldr.32	s15, [r8, #8]
 1038 010c 96ED087A 		vldr.32	s14, [r6, #32]
 1039 0110 97ED020A 		vldr.32	s0, [r7, #8]
 1040 0114 2148     		ldr	r0, .L114+60
 1041 0116 A7EE270A 		vfma.f32	s0, s14, s15
 1042 011a FFF7FEFF 		bl	_ZN7daisysp3Svf7SetFreqEf
 1043 011e 96ED0A0A 		vldr.32	s0, [r6, #40]
 1044 0122 1E48     		ldr	r0, .L114+60
 1045 0124 FFF7FEFF 		bl	_ZN7daisysp3Svf6SetResEf
 1046 0128 1D48     		ldr	r0, .L114+64
 1047 012a 94ED060A 		vldr.32	s0, [r4, #24]
 1048 012e D0ED007A 		vldr.32	s15, [r0]
 1049 0132 1C4B     		ldr	r3, .L114+68
 1050 0134 F5EE407A 		vcmp.f32	s15, #0
 1051 0138 83ED000A 		vstr.32	s0, [r3]
 1052 013c F1EE10FA 		vmrs	APSR_nzcv, FPSCR
 1053 0140 0AD1     		bne	.L113
 1054              	.L108:
 1055 0142 D4ED077A 		vldr.32	s15, [r4, #28]
 1056 0146 FBFE677A 		vrintm.f32	s15, s15
 1057 014a FCEEE77A 		vcvt.u32.f32	s15, s15
 1058 014e 17EE903A 		vmov	r3, s15	@ int
 1059 0152 2B70     		strb	r3, [r5]
 1060 0154 BDE8F087 		pop	{r4, r5, r6, r7, r8, r9, r10, pc}
 1061              	.L113:
 1062 0158 FFF7FEFF 		bl	_ZN7daisysp5Metro7SetFreqEf
 1063 015c F1E7     		b	.L108
 1064              	.L115:
 1065 015e 00BF     		.align	3
 1066              	.L114:
 1067 0160 7B14AE47 		.word	1202590843
 1068 0164 E17A743F 		.word	1064598241
 1069 0168 00000000 		.word	.LANCHOR3
 1070 016c 00000000 		.word	.LANCHOR26
 1071 0170 00000000 		.word	.LANCHOR5
ARM GAS  /var/folders/sj/m2p5rq1x7lz4zl2q3d5y9hzm0000gn/T//ccW0HYIg.s 			page 19


 1072 0174 00000000 		.word	.LANCHOR6
 1073 0178 00000000 		.word	.LANCHOR7
 1074 017c 00000000 		.word	.LANCHOR19
 1075 0180 00000000 		.word	.LANCHOR8
 1076 0184 00000000 		.word	.LANCHOR9
 1077 0188 00000000 		.word	.LANCHOR27
 1078 018c 00000000 		.word	.LANCHOR4
 1079 0190 00000000 		.word	.LANCHOR2
 1080 0194 00000000 		.word	.LANCHOR31
 1081 0198 00000000 		.word	.LANCHOR16
 1082 019c 00000000 		.word	.LANCHOR14
 1083 01a0 00000000 		.word	.LANCHOR20
 1084 01a4 00000000 		.word	.LANCHOR21
 1085 01a8 00000000 		.word	.LANCHOR1
 1086 01ac 00000000 		.word	.LANCHOR28
 1087 01b0 00000000 		.word	.LANCHOR29
 1088 01b4 00000000 		.word	.LANCHOR30
 1090              		.section	.text._Z13AudioCallbackPfS_j,"ax",%progbits
 1091              		.align	1
 1092              		.p2align 2,,3
 1093              		.global	_Z13AudioCallbackPfS_j
 1094              		.syntax unified
 1095              		.thumb
 1096              		.thumb_func
 1097              		.fpu fpv5-d16
 1099              	_Z13AudioCallbackPfS_j:
 1100              		@ args = 0, pretend = 0, frame = 24
 1101              		@ frame_needed = 0, uses_anonymous_args = 0
 1102 0000 2DE9F04F 		push	{r4, r5, r6, r7, r8, r9, r10, fp, lr}
 1103 0004 2DED088B 		vpush.64	{d8, d9, d10, d11}
 1104 0008 87B0     		sub	sp, sp, #28
 1105 000a 1446     		mov	r4, r2
 1106 000c 0D46     		mov	r5, r1
 1107 000e FFF7FEFF 		bl	_Z11ProcessTickv
 1108 0012 6B48     		ldr	r0, .L124+8
 1109 0014 FFF7FEFF 		bl	_ZN5daisy10DaisyField22ProcessDigitalControlsEv
 1110 0018 6948     		ldr	r0, .L124+8
 1111 001a FFF7FEFF 		bl	_ZN5daisy10DaisyField21ProcessAnalogControlsEv
 1112 001e FFF7FEFF 		bl	_Z12UpdateSwitchv
 1113 0022 FFF7FEFF 		bl	_Z10UpdateVarsv
 1114 0026 FFF7FEFF 		bl	_Z10UpdateLedsv
 1115 002a 002C     		cmp	r4, #0
 1116 002c 00F0BF80 		beq	.L116
 1117 0030 601E     		subs	r0, r4, #1
 1118 0032 2B46     		mov	r3, r5
 1119 0034 0022     		movs	r2, #0
 1120 0036 634C     		ldr	r4, .L124+12
 1121 0038 4108     		lsrs	r1, r0, #1
 1122 003a DFF8C0B1 		ldr	fp, .L124+68
 1123 003e DFF8C0A1 		ldr	r10, .L124+72
 1124 0042 614F     		ldr	r7, .L124+16
 1125 0044 614E     		ldr	r6, .L124+20
 1126 0046 DFF8A491 		ldr	r9, .L124+52
 1127 004a DFF8A881 		ldr	r8, .L124+60
 1128 004e 604D     		ldr	r5, .L124+24
 1129 0050 0391     		str	r1, [sp, #12]
 1130              	.L118:
ARM GAS  /var/folders/sj/m2p5rq1x7lz4zl2q3d5y9hzm0000gn/T//ccW0HYIg.s 			page 20


 1131 0052 6048     		ldr	r0, .L124+28
 1132 0054 CDE90132 		strd	r3, r2, [sp, #4]
 1133 0058 FFF7FEFF 		bl	_ZN7daisysp5AdEnv7ProcessEv
 1134 005c 5E48     		ldr	r0, .L124+32
 1135 005e F0EE40BA 		vmov.f32	s23, s0
 1136 0062 FFF7FEFF 		bl	_ZN7daisysp5AdEnv7ProcessEv
 1137 0066 5D48     		ldr	r0, .L124+36
 1138 0068 B0EE40BA 		vmov.f32	s22, s0
 1139 006c FFF7FEFF 		bl	_ZN7daisysp5AdEnv7ProcessEv
 1140 0070 5B48     		ldr	r0, .L124+40
 1141 0072 B0EE40AA 		vmov.f32	s20, s0
 1142 0076 FFF7FEFF 		bl	_ZN7daisysp5AdEnv7ProcessEv
 1143 007a 44F2A71C 		movw	ip, #16807
 1144 007e 6168     		ldr	r1, [r4, #4]
 1145 0080 DFED587A 		vldr.32	s15, .L124+44
 1146 0084 F0EE40AA 		vmov.f32	s21, s0
 1147 0088 0CFB01F1 		mul	r1, ip, r1
 1148 008c E068     		ldr	r0, [r4, #12]
 1149 008e D4ED008A 		vldr.32	s17, [r4]
 1150 0092 07EE101A 		vmov	s14, r1	@ int
 1151 0096 0CFB00F0 		mul	r0, ip, r0
 1152 009a 6160     		str	r1, [r4, #4]
 1153 009c B8EEC77A 		vcvt.f32.s32	s14, s14
 1154 00a0 6169     		ldr	r1, [r4, #20]
 1155 00a2 D4ED046A 		vldr.32	s13, [r4, #16]
 1156 00a6 0CFB01F1 		mul	r1, ip, r1
 1157 00aa 94ED020A 		vldr.32	s0, [r4, #8]
 1158 00ae 27EE277A 		vmul.f32	s14, s14, s15
 1159 00b2 E060     		str	r0, [r4, #12]
 1160 00b4 6161     		str	r1, [r4, #20]
 1161 00b6 67EE288A 		vmul.f32	s17, s14, s17
 1162 00ba 07EE100A 		vmov	s14, r0	@ int
 1163 00be 4A48     		ldr	r0, .L124+48
 1164 00c0 B8EEC79A 		vcvt.f32.s32	s18, s14
 1165 00c4 07EE101A 		vmov	s14, r1	@ int
 1166 00c8 F8EEC79A 		vcvt.f32.s32	s19, s14
 1167 00cc 29EE279A 		vmul.f32	s18, s18, s15
 1168 00d0 69EEA79A 		vmul.f32	s19, s19, s15
 1169 00d4 29EE009A 		vmul.f32	s18, s18, s0
 1170 00d8 69EEA69A 		vmul.f32	s19, s19, s13
 1171 00dc FFF7FEFF 		bl	_ZN7daisysp5AdEnv7ProcessEv
 1172 00e0 9BED007A 		vldr.32	s14, [fp]
 1173 00e4 DAED007A 		vldr.32	s15, [r10]
 1174 00e8 3748     		ldr	r0, .L124+16
 1175 00ea E7EE007A 		vfma.f32	s15, s14, s0
 1176 00ee B0EE670A 		vmov.f32	s0, s15
 1177 00f2 C7ED027A 		vstr.32	s15, [r7, #8]
 1178 00f6 FFF7FEFF 		bl	_ZN7daisysp10Oscillator12CalcPhaseIncEf
 1179 00fa 6AEE0A7A 		vmul.f32	s15, s20, s20
 1180 00fe 96ED037A 		vldr.32	s14, [r6, #12]
 1181 0102 3148     		ldr	r0, .L124+16
 1182 0104 67EE877A 		vmul.f32	s15, s15, s14
 1183 0108 87ED060A 		vstr.32	s0, [r7, #24]
 1184 010c C7ED017A 		vstr.32	s15, [r7, #4]
 1185 0110 FFF7FEFF 		bl	_ZN7daisysp10Oscillator7ProcessEv
 1186 0114 B7EEE87A 		vcvt.f64.f32	d7, s17
 1187 0118 3448     		ldr	r0, .L124+52
ARM GAS  /var/folders/sj/m2p5rq1x7lz4zl2q3d5y9hzm0000gn/T//ccW0HYIg.s 			page 21


 1188 011a B7EECA6A 		vcvt.f64.f32	d6, s20
 1189 011e B7EEC05A 		vcvt.f64.f32	d5, s0
 1190 0122 2BEE899A 		vmul.f32	s18, s23, s18
 1191 0126 9FED244B 		vldr.64	d4, .L124
 1192 012a 29EE2B0A 		vmul.f32	s0, s18, s23
 1193 012e 27EE047B 		vmul.f64	d7, d7, d4
 1194 0132 27EE067B 		vmul.f64	d7, d7, d6
 1195 0136 A6EE075B 		vfma.f64	d5, d6, d7
 1196 013a B0EE458B 		vmov.f64	d8, d5
 1197 013e FFF7FEFF 		bl	_ZN7daisysp3Svf7ProcessEf
 1198 0142 D9F83010 		ldr	r1, [r9, #48]	@ float
 1199 0146 2A48     		ldr	r0, .L124+56
 1200 0148 0491     		str	r1, [sp, #16]	@ float
 1201 014a 04A9     		add	r1, sp, #16
 1202 014c FFF7FEFF 		bl	_ZN7daisysp5ATone7ProcessERf
 1203 0150 96ED07AA 		vldr.32	s20, [r6, #28]
 1204 0154 2748     		ldr	r0, .L124+60
 1205 0156 20EE0A9A 		vmul.f32	s18, s0, s20
 1206 015a 2BEE290A 		vmul.f32	s0, s22, s19
 1207 015e FFF7FEFF 		bl	_ZN7daisysp3Svf7ProcessEf
 1208 0162 D8F83410 		ldr	r1, [r8, #52]	@ float
 1209 0166 2448     		ldr	r0, .L124+64
 1210 0168 0591     		str	r1, [sp, #20]	@ float
 1211 016a 05A9     		add	r1, sp, #20
 1212 016c FFF7FEFF 		bl	_ZN7daisysp5ATone7ProcessERf
 1213 0170 B7EEC88B 		vcvt.f32.f64	s16, d8
 1214 0174 D6ED0B7A 		vldr.32	s15, [r6, #44]
 1215 0178 0021     		movs	r1, #0
 1216 017a 019B     		ldr	r3, [sp, #4]
 1217 017c AAEE098A 		vfma.f32	s16, s20, s18
 1218 0180 029A     		ldr	r2, [sp, #8]
 1219 0182 20EE270A 		vmul.f32	s0, s0, s15
 1220 0186 0398     		ldr	r0, [sp, #12]
 1221 0188 0833     		adds	r3, r3, #8
 1222 018a 9042     		cmp	r0, r2
 1223 018c 02F10102 		add	r2, r2, #1
 1224 0190 A7EE808A 		vfma.f32	s16, s15, s0
 1225 0194 03ED028A 		vstr.32	s16, [r3, #-8]
 1226 0198 03ED018A 		vstr.32	s16, [r3, #-4]
 1227 019c C3ED00AA 		vstr.32	s21, [r3]
 1228 01a0 2960     		str	r1, [r5]	@ float
 1229 01a2 6960     		str	r1, [r5, #4]	@ float
 1230 01a4 A960     		str	r1, [r5, #8]	@ float
 1231 01a6 E960     		str	r1, [r5, #12]	@ float
 1232 01a8 2961     		str	r1, [r5, #16]	@ float
 1233 01aa 7FF452AF 		bne	.L118
 1234              	.L116:
 1235 01ae 07B0     		add	sp, sp, #28
 1236              		@ sp needed
 1237 01b0 BDEC088B 		vldm	sp!, {d8-d11}
 1238 01b4 BDE8F08F 		pop	{r4, r5, r6, r7, r8, r9, r10, fp, pc}
 1239              	.L125:
 1240              		.align	3
 1241              	.L124:
 1242 01b8 FCA9F1D2 		.word	-755914244
 1243 01bc 4D62503F 		.word	1062232653
 1244 01c0 00000000 		.word	.LANCHOR17
ARM GAS  /var/folders/sj/m2p5rq1x7lz4zl2q3d5y9hzm0000gn/T//ccW0HYIg.s 			page 22


 1245 01c4 00000000 		.word	.LANCHOR10
 1246 01c8 00000000 		.word	.LANCHOR11
 1247 01cc 00000000 		.word	.LANCHOR27
 1248 01d0 00000000 		.word	.LANCHOR0
 1249 01d4 38000000 		.word	.LANCHOR2+56
 1250 01d8 70000000 		.word	.LANCHOR2+112
 1251 01dc 00000000 		.word	.LANCHOR2
 1252 01e0 A8000000 		.word	.LANCHOR2+168
 1253 01e4 00000030 		.word	805306368
 1254 01e8 00000000 		.word	.LANCHOR1
 1255 01ec 00000000 		.word	.LANCHOR16
 1256 01f0 18000000 		.word	.LANCHOR12+24
 1257 01f4 00000000 		.word	.LANCHOR14
 1258 01f8 30000000 		.word	.LANCHOR12+48
 1259 01fc 00000000 		.word	.LANCHOR30
 1260 0200 00000000 		.word	.LANCHOR31
 1262              		.section	.text._Z15ProcessControlsv,"ax",%progbits
 1263              		.align	1
 1264              		.p2align 2,,3
 1265              		.global	_Z15ProcessControlsv
 1266              		.syntax unified
 1267              		.thumb
 1268              		.thumb_func
 1269              		.fpu fpv5-d16
 1271              	_Z15ProcessControlsv:
 1272              		@ args = 0, pretend = 0, frame = 0
 1273              		@ frame_needed = 0, uses_anonymous_args = 0
 1274 0000 08B5     		push	{r3, lr}
 1275 0002 0748     		ldr	r0, .L128
 1276 0004 FFF7FEFF 		bl	_ZN5daisy10DaisyField22ProcessDigitalControlsEv
 1277 0008 0548     		ldr	r0, .L128
 1278 000a FFF7FEFF 		bl	_ZN5daisy10DaisyField21ProcessAnalogControlsEv
 1279 000e FFF7FEFF 		bl	_Z12UpdateSwitchv
 1280 0012 FFF7FEFF 		bl	_Z10UpdateVarsv
 1281 0016 BDE80840 		pop	{r3, lr}
 1282 001a FFF7FEBF 		b	_Z10UpdateLedsv
 1283              	.L129:
 1284 001e 00BF     		.align	2
 1285              	.L128:
 1286 0020 00000000 		.word	.LANCHOR17
 1288              		.section	.text.startup._GLOBAL__sub_I_p_Pitch,"ax",%progbits
 1289              		.align	1
 1290              		.p2align 2,,3
 1291              		.syntax unified
 1292              		.thumb
 1293              		.thumb_func
 1294              		.fpu fpv5-d16
 1296              	_GLOBAL__sub_I_p_Pitch:
 1297              		@ args = 0, pretend = 0, frame = 0
 1298              		@ frame_needed = 0, uses_anonymous_args = 0
 1299 0000 70B5     		push	{r4, r5, r6, lr}
 1300 0002 2F4C     		ldr	r4, .L132
 1301 0004 0025     		movs	r5, #0
 1302 0006 2F49     		ldr	r1, .L132+4
 1303 0008 2246     		mov	r2, r4
 1304 000a 2F48     		ldr	r0, .L132+8
 1305 000c FFF7FEFF 		bl	__aeabi_atexit
ARM GAS  /var/folders/sj/m2p5rq1x7lz4zl2q3d5y9hzm0000gn/T//ccW0HYIg.s 			page 23


 1306 0010 2246     		mov	r2, r4
 1307 0012 2C49     		ldr	r1, .L132+4
 1308 0014 2D48     		ldr	r0, .L132+12
 1309 0016 FFF7FEFF 		bl	__aeabi_atexit
 1310 001a 2246     		mov	r2, r4
 1311 001c 2949     		ldr	r1, .L132+4
 1312 001e 2C48     		ldr	r0, .L132+16
 1313 0020 FFF7FEFF 		bl	__aeabi_atexit
 1314 0024 2246     		mov	r2, r4
 1315 0026 2749     		ldr	r1, .L132+4
 1316 0028 2A48     		ldr	r0, .L132+20
 1317 002a 2B4E     		ldr	r6, .L132+24
 1318 002c FFF7FEFF 		bl	__aeabi_atexit
 1319 0030 2246     		mov	r2, r4
 1320 0032 2449     		ldr	r1, .L132+4
 1321 0034 2948     		ldr	r0, .L132+28
 1322 0036 FFF7FEFF 		bl	__aeabi_atexit
 1323 003a 2246     		mov	r2, r4
 1324 003c 2149     		ldr	r1, .L132+4
 1325 003e 2848     		ldr	r0, .L132+32
 1326 0040 FFF7FEFF 		bl	__aeabi_atexit
 1327 0044 2749     		ldr	r1, .L132+36
 1328 0046 4FF40072 		mov	r2, #512
 1329 004a 06F15E00 		add	r0, r6, #94
 1330 004e 7561     		str	r5, [r6, #20]
 1331 0050 B564     		str	r5, [r6, #72]
 1332 0052 FFF7FEFF 		bl	memcpy
 1333 0056 2246     		mov	r2, r4
 1334 0058 2349     		ldr	r1, .L132+40
 1335 005a 3046     		mov	r0, r6
 1336 005c FFF7FEFF 		bl	__aeabi_atexit
 1337 0060 2246     		mov	r2, r4
 1338 0062 2249     		ldr	r1, .L132+44
 1339 0064 2846     		mov	r0, r5
 1340 0066 FFF7FEFF 		bl	__aeabi_atexit
 1341 006a 2246     		mov	r2, r4
 1342 006c 2049     		ldr	r1, .L132+48
 1343 006e 2846     		mov	r0, r5
 1344 0070 FFF7FEFF 		bl	__aeabi_atexit
 1345 0074 2246     		mov	r2, r4
 1346 0076 1F49     		ldr	r1, .L132+52
 1347 0078 2846     		mov	r0, r5
 1348 007a FFF7FEFF 		bl	__aeabi_atexit
 1349 007e 2246     		mov	r2, r4
 1350 0080 1D49     		ldr	r1, .L132+56
 1351 0082 2846     		mov	r0, r5
 1352 0084 FFF7FEFF 		bl	__aeabi_atexit
 1353 0088 2246     		mov	r2, r4
 1354 008a 1C49     		ldr	r1, .L132+60
 1355 008c 1C48     		ldr	r0, .L132+64
 1356 008e FFF7FEFF 		bl	__aeabi_atexit
 1357 0092 2246     		mov	r2, r4
 1358 0094 1949     		ldr	r1, .L132+60
 1359 0096 1B48     		ldr	r0, .L132+68
 1360 0098 FFF7FEFF 		bl	__aeabi_atexit
 1361 009c 2246     		mov	r2, r4
 1362 009e 1749     		ldr	r1, .L132+60
ARM GAS  /var/folders/sj/m2p5rq1x7lz4zl2q3d5y9hzm0000gn/T//ccW0HYIg.s 			page 24


 1363 00a0 1948     		ldr	r0, .L132+72
 1364 00a2 FFF7FEFF 		bl	__aeabi_atexit
 1365 00a6 2246     		mov	r2, r4
 1366 00a8 1849     		ldr	r1, .L132+76
 1367 00aa 2846     		mov	r0, r5
 1368 00ac FFF7FEFF 		bl	__aeabi_atexit
 1369 00b0 2246     		mov	r2, r4
 1370 00b2 1749     		ldr	r1, .L132+80
 1371 00b4 1748     		ldr	r0, .L132+84
 1372 00b6 BDE87040 		pop	{r4, r5, r6, lr}
 1373 00ba FFF7FEBF 		b	__aeabi_atexit
 1374              	.L133:
 1375 00be 00BF     		.align	2
 1376              	.L132:
 1377 00c0 00000000 		.word	__dso_handle
 1378 00c4 00000000 		.word	_ZN5daisy9ParameterD1Ev
 1379 00c8 00000000 		.word	.LANCHOR3
 1380 00cc 00000000 		.word	.LANCHOR5
 1381 00d0 00000000 		.word	.LANCHOR6
 1382 00d4 00000000 		.word	.LANCHOR7
 1383 00d8 00000000 		.word	.LANCHOR17
 1384 00dc 00000000 		.word	.LANCHOR9
 1385 00e0 00000000 		.word	.LANCHOR8
 1386 00e4 00000000 		.word	.LANCHOR32
 1387 00e8 00000000 		.word	_ZN5daisy10DaisyFieldD1Ev
 1388 00ec 00000000 		.word	__tcf_0
 1389 00f0 00000000 		.word	__tcf_1
 1390 00f4 00000000 		.word	__tcf_2
 1391 00f8 00000000 		.word	__tcf_3
 1392 00fc 00000000 		.word	_ZN7daisysp3SvfD1Ev
 1393 0100 00000000 		.word	.LANCHOR14
 1394 0104 00000000 		.word	.LANCHOR16
 1395 0108 00000000 		.word	.LANCHOR15
 1396 010c 00000000 		.word	__tcf_4
 1397 0110 00000000 		.word	_ZN7daisysp5MetroD1Ev
 1398 0114 00000000 		.word	.LANCHOR20
 1400              		.section	.init_array,"aw",%init_array
 1401              		.align	2
 1402 0000 00000000 		.word	_GLOBAL__sub_I_p_Pitch(target1)
 1403              		.global	stepLED
 1404              		.global	Drum
 1405              		.global	tempo
 1406              		.global	Seq
 1407              		.global	oldMode
 1408              		.global	mode
 1409              		.global	Step
 1410              		.global	tick
 1411              		.global	passPoint
 1412              		.global	highPass
 1413              		.global	kck
 1414              		.global	sn
 1415              		.global	flt
 1416              		.global	osc
 1417              		.global	pitchEnv
 1418              		.global	ampEnv
 1419              		.global	noise
 1420              		.global	keyboard_leds
ARM GAS  /var/folders/sj/m2p5rq1x7lz4zl2q3d5y9hzm0000gn/T//ccW0HYIg.s 			page 25


 1421              		.global	buttons
 1422              		.global	hardware
 1423              		.global	trig
 1424              		.global	oDec
 1425              		.global	oPitch
 1426              		.global	mDec
 1427              		.global	mPitch
 1428              		.global	kold
 1429              		.global	kvals
 1430              		.global	params
 1431              		.global	p_tempo
 1432              		.global	p_mode
 1433              		.global	p_Amp
 1434              		.global	p_Fx
 1435              		.global	p_Dec
 1436              		.global	p_Pitch
 1437              		.section	.rodata
 1438              		.align	2
 1439              		.set	.LANCHOR32,. + 0
 1440              	.LC0:
 1441 0000 0000     		.short	0
 1442 0002 0100     		.short	1
 1443 0004 0100     		.short	1
 1444 0006 0100     		.short	1
 1445 0008 0100     		.short	1
 1446 000a 0100     		.short	1
 1447 000c 0100     		.short	1
 1448 000e 0100     		.short	1
 1449 0010 0100     		.short	1
 1450 0012 0100     		.short	1
 1451 0014 0100     		.short	1
 1452 0016 0100     		.short	1
 1453 0018 0200     		.short	2
 1454 001a 0200     		.short	2
 1455 001c 0200     		.short	2
 1456 001e 0200     		.short	2
 1457 0020 0200     		.short	2
 1458 0022 0200     		.short	2
 1459 0024 0200     		.short	2
 1460 0026 0300     		.short	3
 1461 0028 0300     		.short	3
 1462 002a 0400     		.short	4
 1463 002c 0400     		.short	4
 1464 002e 0500     		.short	5
 1465 0030 0500     		.short	5
 1466 0032 0600     		.short	6
 1467 0034 0700     		.short	7
 1468 0036 0800     		.short	8
 1469 0038 0800     		.short	8
 1470 003a 0900     		.short	9
 1471 003c 0A00     		.short	10
 1472 003e 0B00     		.short	11
 1473 0040 0C00     		.short	12
 1474 0042 0D00     		.short	13
 1475 0044 0F00     		.short	15
 1476 0046 1000     		.short	16
 1477 0048 1100     		.short	17
ARM GAS  /var/folders/sj/m2p5rq1x7lz4zl2q3d5y9hzm0000gn/T//ccW0HYIg.s 			page 26


 1478 004a 1200     		.short	18
 1479 004c 1400     		.short	20
 1480 004e 1500     		.short	21
 1481 0050 1700     		.short	23
 1482 0052 1900     		.short	25
 1483 0054 1A00     		.short	26
 1484 0056 1C00     		.short	28
 1485 0058 1E00     		.short	30
 1486 005a 2000     		.short	32
 1487 005c 2200     		.short	34
 1488 005e 2400     		.short	36
 1489 0060 2600     		.short	38
 1490 0062 2800     		.short	40
 1491 0064 2B00     		.short	43
 1492 0066 2D00     		.short	45
 1493 0068 3000     		.short	48
 1494 006a 3200     		.short	50
 1495 006c 3500     		.short	53
 1496 006e 3800     		.short	56
 1497 0070 3B00     		.short	59
 1498 0072 3E00     		.short	62
 1499 0074 4100     		.short	65
 1500 0076 4400     		.short	68
 1501 0078 4700     		.short	71
 1502 007a 4B00     		.short	75
 1503 007c 4E00     		.short	78
 1504 007e 5200     		.short	82
 1505 0080 5500     		.short	85
 1506 0082 5900     		.short	89
 1507 0084 5D00     		.short	93
 1508 0086 6100     		.short	97
 1509 0088 6500     		.short	101
 1510 008a 6900     		.short	105
 1511 008c 6E00     		.short	110
 1512 008e 7200     		.short	114
 1513 0090 7700     		.short	119
 1514 0092 7B00     		.short	123
 1515 0094 8000     		.short	128
 1516 0096 8500     		.short	133
 1517 0098 8A00     		.short	138
 1518 009a 8F00     		.short	143
 1519 009c 9500     		.short	149
 1520 009e 9A00     		.short	154
 1521 00a0 9F00     		.short	159
 1522 00a2 A500     		.short	165
 1523 00a4 AB00     		.short	171
 1524 00a6 B100     		.short	177
 1525 00a8 B700     		.short	183
 1526 00aa BD00     		.short	189
 1527 00ac C300     		.short	195
 1528 00ae CA00     		.short	202
 1529 00b0 D000     		.short	208
 1530 00b2 D700     		.short	215
 1531 00b4 DE00     		.short	222
 1532 00b6 E500     		.short	229
 1533 00b8 EC00     		.short	236
 1534 00ba F300     		.short	243
ARM GAS  /var/folders/sj/m2p5rq1x7lz4zl2q3d5y9hzm0000gn/T//ccW0HYIg.s 			page 27


 1535 00bc FA00     		.short	250
 1536 00be 0201     		.short	258
 1537 00c0 0A01     		.short	266
 1538 00c2 1101     		.short	273
 1539 00c4 1901     		.short	281
 1540 00c6 2201     		.short	290
 1541 00c8 2A01     		.short	298
 1542 00ca 3201     		.short	306
 1543 00cc 3B01     		.short	315
 1544 00ce 4401     		.short	324
 1545 00d0 4C01     		.short	332
 1546 00d2 5501     		.short	341
 1547 00d4 5F01     		.short	351
 1548 00d6 6801     		.short	360
 1549 00d8 7101     		.short	369
 1550 00da 7B01     		.short	379
 1551 00dc 8501     		.short	389
 1552 00de 8F01     		.short	399
 1553 00e0 9901     		.short	409
 1554 00e2 A301     		.short	419
 1555 00e4 AE01     		.short	430
 1556 00e6 B801     		.short	440
 1557 00e8 C301     		.short	451
 1558 00ea CE01     		.short	462
 1559 00ec D901     		.short	473
 1560 00ee E501     		.short	485
 1561 00f0 F001     		.short	496
 1562 00f2 FC01     		.short	508
 1563 00f4 0802     		.short	520
 1564 00f6 1402     		.short	532
 1565 00f8 2002     		.short	544
 1566 00fa 2C02     		.short	556
 1567 00fc 3902     		.short	569
 1568 00fe 4602     		.short	582
 1569 0100 5202     		.short	594
 1570 0102 6002     		.short	608
 1571 0104 6D02     		.short	621
 1572 0106 7A02     		.short	634
 1573 0108 8802     		.short	648
 1574 010a 9602     		.short	662
 1575 010c A402     		.short	676
 1576 010e B202     		.short	690
 1577 0110 C002     		.short	704
 1578 0112 CF02     		.short	719
 1579 0114 DE02     		.short	734
 1580 0116 ED02     		.short	749
 1581 0118 FC02     		.short	764
 1582 011a 0B03     		.short	779
 1583 011c 1B03     		.short	795
 1584 011e 2B03     		.short	811
 1585 0120 3B03     		.short	827
 1586 0122 4B03     		.short	843
 1587 0124 5B03     		.short	859
 1588 0126 6C03     		.short	876
 1589 0128 7D03     		.short	893
 1590 012a 8E03     		.short	910
 1591 012c 9F03     		.short	927
ARM GAS  /var/folders/sj/m2p5rq1x7lz4zl2q3d5y9hzm0000gn/T//ccW0HYIg.s 			page 28


 1592 012e B003     		.short	944
 1593 0130 C203     		.short	962
 1594 0132 D403     		.short	980
 1595 0134 E603     		.short	998
 1596 0136 F803     		.short	1016
 1597 0138 0A04     		.short	1034
 1598 013a 1D04     		.short	1053
 1599 013c 3004     		.short	1072
 1600 013e 4304     		.short	1091
 1601 0140 5604     		.short	1110
 1602 0142 6A04     		.short	1130
 1603 0144 7E04     		.short	1150
 1604 0146 9204     		.short	1170
 1605 0148 A604     		.short	1190
 1606 014a BA04     		.short	1210
 1607 014c CF04     		.short	1231
 1608 014e E404     		.short	1252
 1609 0150 F904     		.short	1273
 1610 0152 0E05     		.short	1294
 1611 0154 2405     		.short	1316
 1612 0156 3A05     		.short	1338
 1613 0158 5005     		.short	1360
 1614 015a 6605     		.short	1382
 1615 015c 7C05     		.short	1404
 1616 015e 9305     		.short	1427
 1617 0160 AA05     		.short	1450
 1618 0162 C105     		.short	1473
 1619 0164 D905     		.short	1497
 1620 0166 F005     		.short	1520
 1621 0168 0806     		.short	1544
 1622 016a 2006     		.short	1568
 1623 016c 3906     		.short	1593
 1624 016e 5106     		.short	1617
 1625 0170 6A06     		.short	1642
 1626 0172 8306     		.short	1667
 1627 0174 9D06     		.short	1693
 1628 0176 B606     		.short	1718
 1629 0178 D006     		.short	1744
 1630 017a EA06     		.short	1770
 1631 017c 0507     		.short	1797
 1632 017e 1F07     		.short	1823
 1633 0180 3A07     		.short	1850
 1634 0182 5507     		.short	1877
 1635 0184 7107     		.short	1905
 1636 0186 8C07     		.short	1932
 1637 0188 A807     		.short	1960
 1638 018a C407     		.short	1988
 1639 018c E107     		.short	2017
 1640 018e FD07     		.short	2045
 1641 0190 1A08     		.short	2074
 1642 0192 3708     		.short	2103
 1643 0194 5508     		.short	2133
 1644 0196 7208     		.short	2162
 1645 0198 9008     		.short	2192
 1646 019a AF08     		.short	2223
 1647 019c CD08     		.short	2253
 1648 019e EC08     		.short	2284
ARM GAS  /var/folders/sj/m2p5rq1x7lz4zl2q3d5y9hzm0000gn/T//ccW0HYIg.s 			page 29


 1649 01a0 0B09     		.short	2315
 1650 01a2 2A09     		.short	2346
 1651 01a4 4A09     		.short	2378
 1652 01a6 6A09     		.short	2410
 1653 01a8 8A09     		.short	2442
 1654 01aa AA09     		.short	2474
 1655 01ac CB09     		.short	2507
 1656 01ae EC09     		.short	2540
 1657 01b0 0D0A     		.short	2573
 1658 01b2 2E0A     		.short	2606
 1659 01b4 500A     		.short	2640
 1660 01b6 720A     		.short	2674
 1661 01b8 940A     		.short	2708
 1662 01ba B70A     		.short	2743
 1663 01bc DA0A     		.short	2778
 1664 01be FD0A     		.short	2813
 1665 01c0 210B     		.short	2849
 1666 01c2 440B     		.short	2884
 1667 01c4 680B     		.short	2920
 1668 01c6 8D0B     		.short	2957
 1669 01c8 B10B     		.short	2993
 1670 01ca D60B     		.short	3030
 1671 01cc FB0B     		.short	3067
 1672 01ce 210C     		.short	3105
 1673 01d0 470C     		.short	3143
 1674 01d2 6D0C     		.short	3181
 1675 01d4 930C     		.short	3219
 1676 01d6 BA0C     		.short	3258
 1677 01d8 E10C     		.short	3297
 1678 01da 080D     		.short	3336
 1679 01dc 300D     		.short	3376
 1680 01de 580D     		.short	3416
 1681 01e0 800D     		.short	3456
 1682 01e2 A80D     		.short	3496
 1683 01e4 D10D     		.short	3537
 1684 01e6 FA0D     		.short	3578
 1685 01e8 230E     		.short	3619
 1686 01ea 4D0E     		.short	3661
 1687 01ec 770E     		.short	3703
 1688 01ee A10E     		.short	3745
 1689 01f0 CC0E     		.short	3788
 1690 01f2 F70E     		.short	3831
 1691 01f4 220F     		.short	3874
 1692 01f6 4E0F     		.short	3918
 1693 01f8 7A0F     		.short	3962
 1694 01fa A60F     		.short	4006
 1695 01fc D20F     		.short	4050
 1696 01fe FF0F     		.short	4095
 1697              		.section	.bss.Seq,"aw",%nobits
 1698              		.align	2
 1699              		.set	.LANCHOR22,. + 0
 1702              	Seq:
 1703 0000 00000000 		.space	160
 1703      00000000 
 1703      00000000 
 1703      00000000 
 1703      00000000 
ARM GAS  /var/folders/sj/m2p5rq1x7lz4zl2q3d5y9hzm0000gn/T//ccW0HYIg.s 			page 30


 1704              		.section	.bss.Step,"aw",%nobits
 1705              		.set	.LANCHOR23,. + 0
 1708              	Step:
 1709 0000 00       		.space	1
 1710              		.section	.bss.ampEnv,"aw",%nobits
 1711              		.align	2
 1712              		.set	.LANCHOR2,. + 0
 1715              	ampEnv:
 1716 0000 00000000 		.space	280
 1716      00000000 
 1716      00000000 
 1716      00000000 
 1716      00000000 
 1717              		.section	.bss.buttons,"aw",%nobits
 1718              		.align	2
 1721              	buttons:
 1722 0000 00000000 		.space	16
 1722      00000000 
 1722      00000000 
 1722      00000000 
 1723              		.section	.bss.flt,"aw",%nobits
 1724              		.align	2
 1725              		.set	.LANCHOR14,. + 0
 1728              	flt:
 1729 0000 00000000 		.space	68
 1729      00000000 
 1729      00000000 
 1729      00000000 
 1729      00000000 
 1730              		.section	.bss.hardware,"aw",%nobits
 1731              		.align	2
 1732              		.set	.LANCHOR17,. + 0
 1735              	hardware:
 1736 0000 00000000 		.space	1036
 1736      00000000 
 1736      00000000 
 1736      00000000 
 1736      00000000 
 1737              		.section	.bss.highPass,"aw",%nobits
 1738              		.align	2
 1739              		.set	.LANCHOR12,. + 0
 1742              	highPass:
 1743 0000 00000000 		.space	120
 1743      00000000 
 1743      00000000 
 1743      00000000 
 1743      00000000 
 1744              		.section	.bss.kck,"aw",%nobits
 1745              		.align	2
 1746              		.set	.LANCHOR15,. + 0
 1749              	kck:
 1750 0000 00000000 		.space	68
 1750      00000000 
 1750      00000000 
 1750      00000000 
 1750      00000000 
 1751              		.section	.bss.kold,"aw",%nobits
ARM GAS  /var/folders/sj/m2p5rq1x7lz4zl2q3d5y9hzm0000gn/T//ccW0HYIg.s 			page 31


 1752              		.align	2
 1753              		.set	.LANCHOR4,. + 0
 1756              	kold:
 1757 0000 00000000 		.space	32
 1757      00000000 
 1757      00000000 
 1757      00000000 
 1757      00000000 
 1758              		.section	.bss.kvals,"aw",%nobits
 1759              		.align	2
 1760              		.set	.LANCHOR26,. + 0
 1763              	kvals:
 1764 0000 00000000 		.space	32
 1764      00000000 
 1764      00000000 
 1764      00000000 
 1764      00000000 
 1765              		.section	.bss.mode,"aw",%nobits
 1766              		.set	.LANCHOR19,. + 0
 1769              	mode:
 1770 0000 00       		.space	1
 1771              		.section	.bss.noise,"aw",%nobits
 1772              		.align	2
 1773              		.set	.LANCHOR10,. + 0
 1776              	noise:
 1777 0000 00000000 		.space	24
 1777      00000000 
 1777      00000000 
 1777      00000000 
 1777      00000000 
 1778              		.section	.bss.oldMode,"aw",%nobits
 1781              	oldMode:
 1782 0000 00       		.space	1
 1783              		.section	.bss.osc,"aw",%nobits
 1784              		.align	2
 1785              		.set	.LANCHOR11,. + 0
 1788              	osc:
 1789 0000 00000000 		.space	200
 1789      00000000 
 1789      00000000 
 1789      00000000 
 1789      00000000 
 1790              		.section	.bss.p_Amp,"aw",%nobits
 1791              		.align	2
 1792              		.set	.LANCHOR7,. + 0
 1795              	p_Amp:
 1796 0000 00000000 		.space	52
 1796      00000000 
 1796      00000000 
 1796      00000000 
 1796      00000000 
 1797              		.section	.bss.p_Dec,"aw",%nobits
 1798              		.align	2
 1799              		.set	.LANCHOR5,. + 0
 1802              	p_Dec:
 1803 0000 00000000 		.space	52
 1803      00000000 
ARM GAS  /var/folders/sj/m2p5rq1x7lz4zl2q3d5y9hzm0000gn/T//ccW0HYIg.s 			page 32


 1803      00000000 
 1803      00000000 
 1803      00000000 
 1804              		.section	.bss.p_Fx,"aw",%nobits
 1805              		.align	2
 1806              		.set	.LANCHOR6,. + 0
 1809              	p_Fx:
 1810 0000 00000000 		.space	52
 1810      00000000 
 1810      00000000 
 1810      00000000 
 1810      00000000 
 1811              		.section	.bss.p_Pitch,"aw",%nobits
 1812              		.align	2
 1813              		.set	.LANCHOR3,. + 0
 1816              	p_Pitch:
 1817 0000 00000000 		.space	52
 1817      00000000 
 1817      00000000 
 1817      00000000 
 1817      00000000 
 1818              		.section	.bss.p_mode,"aw",%nobits
 1819              		.align	2
 1820              		.set	.LANCHOR9,. + 0
 1823              	p_mode:
 1824 0000 00000000 		.space	52
 1824      00000000 
 1824      00000000 
 1824      00000000 
 1824      00000000 
 1825              		.section	.bss.p_tempo,"aw",%nobits
 1826              		.align	2
 1827              		.set	.LANCHOR8,. + 0
 1830              	p_tempo:
 1831 0000 00000000 		.space	52
 1831      00000000 
 1831      00000000 
 1831      00000000 
 1831      00000000 
 1832              		.section	.bss.params,"aw",%nobits
 1833              		.align	2
 1834              		.set	.LANCHOR27,. + 0
 1837              	params:
 1838 0000 00000000 		.space	80
 1838      00000000 
 1838      00000000 
 1838      00000000 
 1838      00000000 
 1839              		.section	.bss.pitchEnv,"aw",%nobits
 1840              		.align	2
 1841              		.set	.LANCHOR1,. + 0
 1844              	pitchEnv:
 1845 0000 00000000 		.space	280
 1845      00000000 
 1845      00000000 
 1845      00000000 
 1845      00000000 
ARM GAS  /var/folders/sj/m2p5rq1x7lz4zl2q3d5y9hzm0000gn/T//ccW0HYIg.s 			page 33


 1846              		.section	.bss.sn,"aw",%nobits
 1847              		.align	2
 1848              		.set	.LANCHOR16,. + 0
 1851              	sn:
 1852 0000 00000000 		.space	68
 1852      00000000 
 1852      00000000 
 1852      00000000 
 1852      00000000 
 1853              		.section	.bss.stepLED,"aw",%nobits
 1854              		.align	2
 1855              		.set	.LANCHOR25,. + 0
 1858              	stepLED:
 1859 0000 00000000 		.space	4
 1860              		.section	.bss.tick,"aw",%nobits
 1861              		.align	2
 1862              		.set	.LANCHOR20,. + 0
 1865              	tick:
 1866 0000 00000000 		.space	16
 1866      00000000 
 1866      00000000 
 1866      00000000 
 1867              		.section	.bss.trig,"aw",%nobits
 1868              		.align	2
 1869              		.set	.LANCHOR0,. + 0
 1872              	trig:
 1873 0000 00000000 		.space	20
 1873      00000000 
 1873      00000000 
 1873      00000000 
 1873      00000000 
 1874              		.section	.data.Drum,"aw"
 1875              		.align	2
 1876              		.set	.LANCHOR18,. + 0
 1879              	Drum:
 1880 0000 00000000 		.word	_Z4Kickv
 1881 0004 00000000 		.word	_Z5Snarev
 1882 0008 00000000 		.word	_Z3Hatv
 1883 000c 00000000 		.word	_Z5Laserv
 1884 0010 00000000 		.word	_Z3Tomv
 1885              		.section	.data.keyboard_leds,"aw"
 1886              		.align	2
 1887              		.set	.LANCHOR24,. + 0
 1890              	keyboard_leds:
 1891 0000 0F000000 		.word	15
 1892 0004 0E000000 		.word	14
 1893 0008 0D000000 		.word	13
 1894 000c 0C000000 		.word	12
 1895 0010 0B000000 		.word	11
 1896 0014 0A000000 		.word	10
 1897 0018 09000000 		.word	9
 1898 001c 08000000 		.word	8
 1899 0020 00000000 		.word	0
 1900 0024 01000000 		.word	1
 1901 0028 02000000 		.word	2
 1902 002c 03000000 		.word	3
 1903 0030 04000000 		.word	4
ARM GAS  /var/folders/sj/m2p5rq1x7lz4zl2q3d5y9hzm0000gn/T//ccW0HYIg.s 			page 34


 1904 0034 05000000 		.word	5
 1905 0038 06000000 		.word	6
 1906 003c 07000000 		.word	7
 1907              		.section	.data.mDec,"aw"
 1908              		.align	2
 1909              		.set	.LANCHOR28,. + 0
 1912              	mDec:
 1913 0000 9A99993E 		.word	1050253722
 1914 0004 0000003F 		.word	1056964608
 1915 0008 0000003F 		.word	1056964608
 1916 000c 0000803F 		.word	1065353216
 1917 0010 0000003F 		.word	1056964608
 1918              		.section	.data.mPitch,"aw"
 1919              		.align	2
 1920              		.set	.LANCHOR30,. + 0
 1923              	mPitch:
 1924 0000 0000FA44 		.word	1157234688
 1925 0004 0000FA44 		.word	1157234688
 1926 0008 00007A45 		.word	1165623296
 1927 000c 00007A45 		.word	1165623296
 1928 0010 00004843 		.word	1128792064
 1929              		.section	.data.oDec,"aw"
 1930              		.align	2
 1931              		.set	.LANCHOR29,. + 0
 1934              	oDec:
 1935 0000 0AD7233C 		.word	1008981770
 1936 0004 CDCCCC3D 		.word	1036831949
 1937 0008 CDCC4C3D 		.word	1028443341
 1938 000c CDCCCC3D 		.word	1036831949
 1939 0010 CDCCCC3D 		.word	1036831949
 1940              		.section	.data.oPitch,"aw"
 1941              		.align	2
 1942              		.set	.LANCHOR31,. + 0
 1945              	oPitch:
 1946 0000 00004842 		.word	1112014848
 1947 0004 00007A44 		.word	1148846080
 1948 0008 00803B45 		.word	1161527296
 1949 000c 0000FA43 		.word	1140457472
 1950 0010 0000C842 		.word	1120403456
 1951              		.section	.data.passPoint,"aw"
 1952              		.align	2
 1953              		.set	.LANCHOR13,. + 0
 1956              	passPoint:
 1957 0000 0000F041 		.word	1106247680
 1958              		.section	.data.tempo,"aw"
 1959              		.align	2
 1960              		.set	.LANCHOR21,. + 0
 1963              	tempo:
 1964 0000 00004040 		.word	1077936128
 1965              		.hidden	__dso_handle
 1966              		.ident	"GCC: (GNU Arm Embedded Toolchain 10-2020-q4-major) 10.2.1 20201103 (release)"
ARM GAS  /var/folders/sj/m2p5rq1x7lz4zl2q3d5y9hzm0000gn/T//ccW0HYIg.s 			page 35


DEFINED SYMBOLS
                            *ABS*:0000000000000000 Fake08.cpp
/var/folders/sj/m2p5rq1x7lz4zl2q3d5y9hzm0000gn/T//ccW0HYIg.s:15     .text._ZN7daisysp3SvfD2Ev:0000000000000000 $t
/var/folders/sj/m2p5rq1x7lz4zl2q3d5y9hzm0000gn/T//ccW0HYIg.s:24     .text._ZN7daisysp3SvfD2Ev:0000000000000000 _ZN7daisysp3SvfD2Ev
/var/folders/sj/m2p5rq1x7lz4zl2q3d5y9hzm0000gn/T//ccW0HYIg.s:24     .text._ZN7daisysp3SvfD2Ev:0000000000000000 _ZN7daisysp3SvfD1Ev
/var/folders/sj/m2p5rq1x7lz4zl2q3d5y9hzm0000gn/T//ccW0HYIg.s:33     .text._ZN7daisysp5MetroD2Ev:0000000000000000 $t
/var/folders/sj/m2p5rq1x7lz4zl2q3d5y9hzm0000gn/T//ccW0HYIg.s:41     .text._ZN7daisysp5MetroD2Ev:0000000000000000 _ZN7daisysp5MetroD2Ev
/var/folders/sj/m2p5rq1x7lz4zl2q3d5y9hzm0000gn/T//ccW0HYIg.s:41     .text._ZN7daisysp5MetroD2Ev:0000000000000000 _ZN7daisysp5MetroD1Ev
/var/folders/sj/m2p5rq1x7lz4zl2q3d5y9hzm0000gn/T//ccW0HYIg.s:50     .text._ZN5daisy9ParameterD2Ev:0000000000000000 $t
/var/folders/sj/m2p5rq1x7lz4zl2q3d5y9hzm0000gn/T//ccW0HYIg.s:58     .text._ZN5daisy9ParameterD2Ev:0000000000000000 _ZN5daisy9ParameterD2Ev
/var/folders/sj/m2p5rq1x7lz4zl2q3d5y9hzm0000gn/T//ccW0HYIg.s:58     .text._ZN5daisy9ParameterD2Ev:0000000000000000 _ZN5daisy9ParameterD1Ev
/var/folders/sj/m2p5rq1x7lz4zl2q3d5y9hzm0000gn/T//ccW0HYIg.s:67     .text._ZN5daisy10DaisyFieldD2Ev:0000000000000000 $t
/var/folders/sj/m2p5rq1x7lz4zl2q3d5y9hzm0000gn/T//ccW0HYIg.s:75     .text._ZN5daisy10DaisyFieldD2Ev:0000000000000000 _ZN5daisy10DaisyFieldD2Ev
/var/folders/sj/m2p5rq1x7lz4zl2q3d5y9hzm0000gn/T//ccW0HYIg.s:75     .text._ZN5daisy10DaisyFieldD2Ev:0000000000000000 _ZN5daisy10DaisyFieldD1Ev
/var/folders/sj/m2p5rq1x7lz4zl2q3d5y9hzm0000gn/T//ccW0HYIg.s:84     .text._Z4Kickv:0000000000000000 $t
/var/folders/sj/m2p5rq1x7lz4zl2q3d5y9hzm0000gn/T//ccW0HYIg.s:92     .text._Z4Kickv:0000000000000000 _Z4Kickv
/var/folders/sj/m2p5rq1x7lz4zl2q3d5y9hzm0000gn/T//ccW0HYIg.s:108    .text._Z4Kickv:000000000000001c $d
/var/folders/sj/m2p5rq1x7lz4zl2q3d5y9hzm0000gn/T//ccW0HYIg.s:113    .text._Z5Snarev:0000000000000000 $t
/var/folders/sj/m2p5rq1x7lz4zl2q3d5y9hzm0000gn/T//ccW0HYIg.s:121    .text._Z5Snarev:0000000000000000 _Z5Snarev
/var/folders/sj/m2p5rq1x7lz4zl2q3d5y9hzm0000gn/T//ccW0HYIg.s:139    .text._Z5Snarev:0000000000000020 $d
/var/folders/sj/m2p5rq1x7lz4zl2q3d5y9hzm0000gn/T//ccW0HYIg.s:144    .text._Z3Hatv:0000000000000000 $t
/var/folders/sj/m2p5rq1x7lz4zl2q3d5y9hzm0000gn/T//ccW0HYIg.s:152    .text._Z3Hatv:0000000000000000 _Z3Hatv
/var/folders/sj/m2p5rq1x7lz4zl2q3d5y9hzm0000gn/T//ccW0HYIg.s:166    .text._Z3Hatv:0000000000000014 $d
/var/folders/sj/m2p5rq1x7lz4zl2q3d5y9hzm0000gn/T//ccW0HYIg.s:170    .text._Z5Laserv:0000000000000000 $t
/var/folders/sj/m2p5rq1x7lz4zl2q3d5y9hzm0000gn/T//ccW0HYIg.s:178    .text._Z5Laserv:0000000000000000 _Z5Laserv
/var/folders/sj/m2p5rq1x7lz4zl2q3d5y9hzm0000gn/T//ccW0HYIg.s:196    .text._Z5Laserv:0000000000000020 $d
/var/folders/sj/m2p5rq1x7lz4zl2q3d5y9hzm0000gn/T//ccW0HYIg.s:201    .text._Z3Tomv:0000000000000000 $t
/var/folders/sj/m2p5rq1x7lz4zl2q3d5y9hzm0000gn/T//ccW0HYIg.s:209    .text._Z3Tomv:0000000000000000 _Z3Tomv
/var/folders/sj/m2p5rq1x7lz4zl2q3d5y9hzm0000gn/T//ccW0HYIg.s:227    .text._Z3Tomv:0000000000000020 $d
/var/folders/sj/m2p5rq1x7lz4zl2q3d5y9hzm0000gn/T//ccW0HYIg.s:232    .text.__tcf_0:0000000000000000 $t
/var/folders/sj/m2p5rq1x7lz4zl2q3d5y9hzm0000gn/T//ccW0HYIg.s:239    .text.__tcf_0:0000000000000000 __tcf_0
/var/folders/sj/m2p5rq1x7lz4zl2q3d5y9hzm0000gn/T//ccW0HYIg.s:246    .text.__tcf_3:0000000000000000 $t
/var/folders/sj/m2p5rq1x7lz4zl2q3d5y9hzm0000gn/T//ccW0HYIg.s:253    .text.__tcf_3:0000000000000000 __tcf_3
/var/folders/sj/m2p5rq1x7lz4zl2q3d5y9hzm0000gn/T//ccW0HYIg.s:260    .text.__tcf_4:0000000000000000 $t
/var/folders/sj/m2p5rq1x7lz4zl2q3d5y9hzm0000gn/T//ccW0HYIg.s:267    .text.__tcf_4:0000000000000000 __tcf_4
/var/folders/sj/m2p5rq1x7lz4zl2q3d5y9hzm0000gn/T//ccW0HYIg.s:274    .text.__tcf_1:0000000000000000 $t
/var/folders/sj/m2p5rq1x7lz4zl2q3d5y9hzm0000gn/T//ccW0HYIg.s:281    .text.__tcf_1:0000000000000000 __tcf_1
/var/folders/sj/m2p5rq1x7lz4zl2q3d5y9hzm0000gn/T//ccW0HYIg.s:288    .text.__tcf_2:0000000000000000 $t
/var/folders/sj/m2p5rq1x7lz4zl2q3d5y9hzm0000gn/T//ccW0HYIg.s:295    .text.__tcf_2:0000000000000000 __tcf_2
/var/folders/sj/m2p5rq1x7lz4zl2q3d5y9hzm0000gn/T//ccW0HYIg.s:302    .text._ZN5daisy16LedDriverPca9685ILi2ELb1EE14TxCpltCallbackEPvNS_9I2CHandle6ResultE:0000000000000000 $t
/var/folders/sj/m2p5rq1x7lz4zl2q3d5y9hzm0000gn/T//ccW0HYIg.s:310    .text._ZN5daisy16LedDriverPca9685ILi2ELb1EE14TxCpltCallbackEPvNS_9I2CHandle6ResultE:0000000000000000 _ZN5daisy16LedDriverPca9685ILi2ELb1EE14TxCpltCallbackEPvNS_9I2CHandle6ResultE
/var/folders/sj/m2p5rq1x7lz4zl2q3d5y9hzm0000gn/T//ccW0HYIg.s:353    .text._ZN5daisy16LedDriverPca9685ILi2ELb1EE14TxCpltCallbackEPvNS_9I2CHandle6ResultE:0000000000000050 $d
/var/folders/sj/m2p5rq1x7lz4zl2q3d5y9hzm0000gn/T//ccW0HYIg.s:356    .text._Z10SetupDrumsf:0000000000000000 $t
/var/folders/sj/m2p5rq1x7lz4zl2q3d5y9hzm0000gn/T//ccW0HYIg.s:364    .text._Z10SetupDrumsf:0000000000000000 _Z10SetupDrumsf
/var/folders/sj/m2p5rq1x7lz4zl2q3d5y9hzm0000gn/T//ccW0HYIg.s:499    .text._Z10SetupDrumsf:00000000000001ac $d
/var/folders/sj/m2p5rq1x7lz4zl2q3d5y9hzm0000gn/T//ccW0HYIg.s:524    .text._Z6SetSeqPbb:0000000000000000 $t
/var/folders/sj/m2p5rq1x7lz4zl2q3d5y9hzm0000gn/T//ccW0HYIg.s:532    .text._Z6SetSeqPbb:0000000000000000 _Z6SetSeqPbb
/var/folders/sj/m2p5rq1x7lz4zl2q3d5y9hzm0000gn/T//ccW0HYIg.s:540    .text._Z12UpdateSwitchv:0000000000000000 $t
/var/folders/sj/m2p5rq1x7lz4zl2q3d5y9hzm0000gn/T//ccW0HYIg.s:548    .text._Z12UpdateSwitchv:0000000000000000 _Z12UpdateSwitchv
/var/folders/sj/m2p5rq1x7lz4zl2q3d5y9hzm0000gn/T//ccW0HYIg.s:583    .text._Z12UpdateSwitchv:000000000000004c $d
/var/folders/sj/m2p5rq1x7lz4zl2q3d5y9hzm0000gn/T//ccW0HYIg.s:591    .text.startup.main:0000000000000000 $t
/var/folders/sj/m2p5rq1x7lz4zl2q3d5y9hzm0000gn/T//ccW0HYIg.s:599    .text.startup.main:0000000000000000 main
/var/folders/sj/m2p5rq1x7lz4zl2q3d5y9hzm0000gn/T//ccW0HYIg.s:711    .text.startup.main:000000000000015c $d
/var/folders/sj/m2p5rq1x7lz4zl2q3d5y9hzm0000gn/T//ccW0HYIg.s:1099   .text._Z13AudioCallbackPfS_j:0000000000000000 _Z13AudioCallbackPfS_j
/var/folders/sj/m2p5rq1x7lz4zl2q3d5y9hzm0000gn/T//ccW0HYIg.s:726    .text._Z14IncrementStepsv:0000000000000000 $t
/var/folders/sj/m2p5rq1x7lz4zl2q3d5y9hzm0000gn/T//ccW0HYIg.s:734    .text._Z14IncrementStepsv:0000000000000000 _Z14IncrementStepsv
/var/folders/sj/m2p5rq1x7lz4zl2q3d5y9hzm0000gn/T//ccW0HYIg.s:747    .text._Z14IncrementStepsv:0000000000000010 $d
ARM GAS  /var/folders/sj/m2p5rq1x7lz4zl2q3d5y9hzm0000gn/T//ccW0HYIg.s 			page 36


/var/folders/sj/m2p5rq1x7lz4zl2q3d5y9hzm0000gn/T//ccW0HYIg.s:750    .text._Z11ProcessTickv:0000000000000000 $t
/var/folders/sj/m2p5rq1x7lz4zl2q3d5y9hzm0000gn/T//ccW0HYIg.s:758    .text._Z11ProcessTickv:0000000000000000 _Z11ProcessTickv
/var/folders/sj/m2p5rq1x7lz4zl2q3d5y9hzm0000gn/T//ccW0HYIg.s:798    .text._Z11ProcessTickv:0000000000000048 $d
/var/folders/sj/m2p5rq1x7lz4zl2q3d5y9hzm0000gn/T//ccW0HYIg.s:804    .text._Z10UpdateLedsv:0000000000000000 $t
/var/folders/sj/m2p5rq1x7lz4zl2q3d5y9hzm0000gn/T//ccW0HYIg.s:812    .text._Z10UpdateLedsv:0000000000000000 _Z10UpdateLedsv
/var/folders/sj/m2p5rq1x7lz4zl2q3d5y9hzm0000gn/T//ccW0HYIg.s:930    .text._Z10UpdateLedsv:0000000000000118 $d
/var/folders/sj/m2p5rq1x7lz4zl2q3d5y9hzm0000gn/T//ccW0HYIg.s:941    .text._Z10UpdateVarsv:0000000000000000 $t
/var/folders/sj/m2p5rq1x7lz4zl2q3d5y9hzm0000gn/T//ccW0HYIg.s:949    .text._Z10UpdateVarsv:0000000000000000 _Z10UpdateVarsv
/var/folders/sj/m2p5rq1x7lz4zl2q3d5y9hzm0000gn/T//ccW0HYIg.s:1067   .text._Z10UpdateVarsv:0000000000000160 $d
/var/folders/sj/m2p5rq1x7lz4zl2q3d5y9hzm0000gn/T//ccW0HYIg.s:1091   .text._Z13AudioCallbackPfS_j:0000000000000000 $t
/var/folders/sj/m2p5rq1x7lz4zl2q3d5y9hzm0000gn/T//ccW0HYIg.s:1242   .text._Z13AudioCallbackPfS_j:00000000000001b8 $d
/var/folders/sj/m2p5rq1x7lz4zl2q3d5y9hzm0000gn/T//ccW0HYIg.s:1263   .text._Z15ProcessControlsv:0000000000000000 $t
/var/folders/sj/m2p5rq1x7lz4zl2q3d5y9hzm0000gn/T//ccW0HYIg.s:1271   .text._Z15ProcessControlsv:0000000000000000 _Z15ProcessControlsv
/var/folders/sj/m2p5rq1x7lz4zl2q3d5y9hzm0000gn/T//ccW0HYIg.s:1286   .text._Z15ProcessControlsv:0000000000000020 $d
/var/folders/sj/m2p5rq1x7lz4zl2q3d5y9hzm0000gn/T//ccW0HYIg.s:1289   .text.startup._GLOBAL__sub_I_p_Pitch:0000000000000000 $t
/var/folders/sj/m2p5rq1x7lz4zl2q3d5y9hzm0000gn/T//ccW0HYIg.s:1296   .text.startup._GLOBAL__sub_I_p_Pitch:0000000000000000 _GLOBAL__sub_I_p_Pitch
/var/folders/sj/m2p5rq1x7lz4zl2q3d5y9hzm0000gn/T//ccW0HYIg.s:1377   .text.startup._GLOBAL__sub_I_p_Pitch:00000000000000c0 $d
/var/folders/sj/m2p5rq1x7lz4zl2q3d5y9hzm0000gn/T//ccW0HYIg.s:1401   .init_array:0000000000000000 $d
/var/folders/sj/m2p5rq1x7lz4zl2q3d5y9hzm0000gn/T//ccW0HYIg.s:1858   .bss.stepLED:0000000000000000 stepLED
/var/folders/sj/m2p5rq1x7lz4zl2q3d5y9hzm0000gn/T//ccW0HYIg.s:1879   .data.Drum:0000000000000000 Drum
/var/folders/sj/m2p5rq1x7lz4zl2q3d5y9hzm0000gn/T//ccW0HYIg.s:1963   .data.tempo:0000000000000000 tempo
/var/folders/sj/m2p5rq1x7lz4zl2q3d5y9hzm0000gn/T//ccW0HYIg.s:1702   .bss.Seq:0000000000000000 Seq
/var/folders/sj/m2p5rq1x7lz4zl2q3d5y9hzm0000gn/T//ccW0HYIg.s:1781   .bss.oldMode:0000000000000000 oldMode
/var/folders/sj/m2p5rq1x7lz4zl2q3d5y9hzm0000gn/T//ccW0HYIg.s:1769   .bss.mode:0000000000000000 mode
/var/folders/sj/m2p5rq1x7lz4zl2q3d5y9hzm0000gn/T//ccW0HYIg.s:1708   .bss.Step:0000000000000000 Step
/var/folders/sj/m2p5rq1x7lz4zl2q3d5y9hzm0000gn/T//ccW0HYIg.s:1865   .bss.tick:0000000000000000 tick
/var/folders/sj/m2p5rq1x7lz4zl2q3d5y9hzm0000gn/T//ccW0HYIg.s:1956   .data.passPoint:0000000000000000 passPoint
/var/folders/sj/m2p5rq1x7lz4zl2q3d5y9hzm0000gn/T//ccW0HYIg.s:1742   .bss.highPass:0000000000000000 highPass
/var/folders/sj/m2p5rq1x7lz4zl2q3d5y9hzm0000gn/T//ccW0HYIg.s:1749   .bss.kck:0000000000000000 kck
/var/folders/sj/m2p5rq1x7lz4zl2q3d5y9hzm0000gn/T//ccW0HYIg.s:1851   .bss.sn:0000000000000000 sn
/var/folders/sj/m2p5rq1x7lz4zl2q3d5y9hzm0000gn/T//ccW0HYIg.s:1728   .bss.flt:0000000000000000 flt
/var/folders/sj/m2p5rq1x7lz4zl2q3d5y9hzm0000gn/T//ccW0HYIg.s:1788   .bss.osc:0000000000000000 osc
/var/folders/sj/m2p5rq1x7lz4zl2q3d5y9hzm0000gn/T//ccW0HYIg.s:1844   .bss.pitchEnv:0000000000000000 pitchEnv
/var/folders/sj/m2p5rq1x7lz4zl2q3d5y9hzm0000gn/T//ccW0HYIg.s:1715   .bss.ampEnv:0000000000000000 ampEnv
/var/folders/sj/m2p5rq1x7lz4zl2q3d5y9hzm0000gn/T//ccW0HYIg.s:1776   .bss.noise:0000000000000000 noise
/var/folders/sj/m2p5rq1x7lz4zl2q3d5y9hzm0000gn/T//ccW0HYIg.s:1890   .data.keyboard_leds:0000000000000000 keyboard_leds
/var/folders/sj/m2p5rq1x7lz4zl2q3d5y9hzm0000gn/T//ccW0HYIg.s:1721   .bss.buttons:0000000000000000 buttons
/var/folders/sj/m2p5rq1x7lz4zl2q3d5y9hzm0000gn/T//ccW0HYIg.s:1735   .bss.hardware:0000000000000000 hardware
/var/folders/sj/m2p5rq1x7lz4zl2q3d5y9hzm0000gn/T//ccW0HYIg.s:1872   .bss.trig:0000000000000000 trig
/var/folders/sj/m2p5rq1x7lz4zl2q3d5y9hzm0000gn/T//ccW0HYIg.s:1934   .data.oDec:0000000000000000 oDec
/var/folders/sj/m2p5rq1x7lz4zl2q3d5y9hzm0000gn/T//ccW0HYIg.s:1945   .data.oPitch:0000000000000000 oPitch
/var/folders/sj/m2p5rq1x7lz4zl2q3d5y9hzm0000gn/T//ccW0HYIg.s:1912   .data.mDec:0000000000000000 mDec
/var/folders/sj/m2p5rq1x7lz4zl2q3d5y9hzm0000gn/T//ccW0HYIg.s:1923   .data.mPitch:0000000000000000 mPitch
/var/folders/sj/m2p5rq1x7lz4zl2q3d5y9hzm0000gn/T//ccW0HYIg.s:1756   .bss.kold:0000000000000000 kold
/var/folders/sj/m2p5rq1x7lz4zl2q3d5y9hzm0000gn/T//ccW0HYIg.s:1763   .bss.kvals:0000000000000000 kvals
/var/folders/sj/m2p5rq1x7lz4zl2q3d5y9hzm0000gn/T//ccW0HYIg.s:1837   .bss.params:0000000000000000 params
/var/folders/sj/m2p5rq1x7lz4zl2q3d5y9hzm0000gn/T//ccW0HYIg.s:1830   .bss.p_tempo:0000000000000000 p_tempo
/var/folders/sj/m2p5rq1x7lz4zl2q3d5y9hzm0000gn/T//ccW0HYIg.s:1823   .bss.p_mode:0000000000000000 p_mode
/var/folders/sj/m2p5rq1x7lz4zl2q3d5y9hzm0000gn/T//ccW0HYIg.s:1795   .bss.p_Amp:0000000000000000 p_Amp
/var/folders/sj/m2p5rq1x7lz4zl2q3d5y9hzm0000gn/T//ccW0HYIg.s:1809   .bss.p_Fx:0000000000000000 p_Fx
/var/folders/sj/m2p5rq1x7lz4zl2q3d5y9hzm0000gn/T//ccW0HYIg.s:1802   .bss.p_Dec:0000000000000000 p_Dec
/var/folders/sj/m2p5rq1x7lz4zl2q3d5y9hzm0000gn/T//ccW0HYIg.s:1816   .bss.p_Pitch:0000000000000000 p_Pitch
/var/folders/sj/m2p5rq1x7lz4zl2q3d5y9hzm0000gn/T//ccW0HYIg.s:1438   .rodata:0000000000000000 $d
/var/folders/sj/m2p5rq1x7lz4zl2q3d5y9hzm0000gn/T//ccW0HYIg.s:1698   .bss.Seq:0000000000000000 $d
/var/folders/sj/m2p5rq1x7lz4zl2q3d5y9hzm0000gn/T//ccW0HYIg.s:1709   .bss.Step:0000000000000000 $d
/var/folders/sj/m2p5rq1x7lz4zl2q3d5y9hzm0000gn/T//ccW0HYIg.s:1711   .bss.ampEnv:0000000000000000 $d
/var/folders/sj/m2p5rq1x7lz4zl2q3d5y9hzm0000gn/T//ccW0HYIg.s:1718   .bss.buttons:0000000000000000 $d
ARM GAS  /var/folders/sj/m2p5rq1x7lz4zl2q3d5y9hzm0000gn/T//ccW0HYIg.s 			page 37


/var/folders/sj/m2p5rq1x7lz4zl2q3d5y9hzm0000gn/T//ccW0HYIg.s:1724   .bss.flt:0000000000000000 $d
/var/folders/sj/m2p5rq1x7lz4zl2q3d5y9hzm0000gn/T//ccW0HYIg.s:1731   .bss.hardware:0000000000000000 $d
/var/folders/sj/m2p5rq1x7lz4zl2q3d5y9hzm0000gn/T//ccW0HYIg.s:1738   .bss.highPass:0000000000000000 $d
/var/folders/sj/m2p5rq1x7lz4zl2q3d5y9hzm0000gn/T//ccW0HYIg.s:1745   .bss.kck:0000000000000000 $d
/var/folders/sj/m2p5rq1x7lz4zl2q3d5y9hzm0000gn/T//ccW0HYIg.s:1752   .bss.kold:0000000000000000 $d
/var/folders/sj/m2p5rq1x7lz4zl2q3d5y9hzm0000gn/T//ccW0HYIg.s:1759   .bss.kvals:0000000000000000 $d
/var/folders/sj/m2p5rq1x7lz4zl2q3d5y9hzm0000gn/T//ccW0HYIg.s:1770   .bss.mode:0000000000000000 $d
/var/folders/sj/m2p5rq1x7lz4zl2q3d5y9hzm0000gn/T//ccW0HYIg.s:1772   .bss.noise:0000000000000000 $d
/var/folders/sj/m2p5rq1x7lz4zl2q3d5y9hzm0000gn/T//ccW0HYIg.s:1782   .bss.oldMode:0000000000000000 $d
/var/folders/sj/m2p5rq1x7lz4zl2q3d5y9hzm0000gn/T//ccW0HYIg.s:1784   .bss.osc:0000000000000000 $d
/var/folders/sj/m2p5rq1x7lz4zl2q3d5y9hzm0000gn/T//ccW0HYIg.s:1791   .bss.p_Amp:0000000000000000 $d
/var/folders/sj/m2p5rq1x7lz4zl2q3d5y9hzm0000gn/T//ccW0HYIg.s:1798   .bss.p_Dec:0000000000000000 $d
/var/folders/sj/m2p5rq1x7lz4zl2q3d5y9hzm0000gn/T//ccW0HYIg.s:1805   .bss.p_Fx:0000000000000000 $d
/var/folders/sj/m2p5rq1x7lz4zl2q3d5y9hzm0000gn/T//ccW0HYIg.s:1812   .bss.p_Pitch:0000000000000000 $d
/var/folders/sj/m2p5rq1x7lz4zl2q3d5y9hzm0000gn/T//ccW0HYIg.s:1819   .bss.p_mode:0000000000000000 $d
/var/folders/sj/m2p5rq1x7lz4zl2q3d5y9hzm0000gn/T//ccW0HYIg.s:1826   .bss.p_tempo:0000000000000000 $d
/var/folders/sj/m2p5rq1x7lz4zl2q3d5y9hzm0000gn/T//ccW0HYIg.s:1833   .bss.params:0000000000000000 $d
/var/folders/sj/m2p5rq1x7lz4zl2q3d5y9hzm0000gn/T//ccW0HYIg.s:1840   .bss.pitchEnv:0000000000000000 $d
/var/folders/sj/m2p5rq1x7lz4zl2q3d5y9hzm0000gn/T//ccW0HYIg.s:1847   .bss.sn:0000000000000000 $d
/var/folders/sj/m2p5rq1x7lz4zl2q3d5y9hzm0000gn/T//ccW0HYIg.s:1854   .bss.stepLED:0000000000000000 $d
/var/folders/sj/m2p5rq1x7lz4zl2q3d5y9hzm0000gn/T//ccW0HYIg.s:1861   .bss.tick:0000000000000000 $d
/var/folders/sj/m2p5rq1x7lz4zl2q3d5y9hzm0000gn/T//ccW0HYIg.s:1868   .bss.trig:0000000000000000 $d
/var/folders/sj/m2p5rq1x7lz4zl2q3d5y9hzm0000gn/T//ccW0HYIg.s:1875   .data.Drum:0000000000000000 $d
/var/folders/sj/m2p5rq1x7lz4zl2q3d5y9hzm0000gn/T//ccW0HYIg.s:1886   .data.keyboard_leds:0000000000000000 $d
/var/folders/sj/m2p5rq1x7lz4zl2q3d5y9hzm0000gn/T//ccW0HYIg.s:1908   .data.mDec:0000000000000000 $d
/var/folders/sj/m2p5rq1x7lz4zl2q3d5y9hzm0000gn/T//ccW0HYIg.s:1919   .data.mPitch:0000000000000000 $d
/var/folders/sj/m2p5rq1x7lz4zl2q3d5y9hzm0000gn/T//ccW0HYIg.s:1930   .data.oDec:0000000000000000 $d
/var/folders/sj/m2p5rq1x7lz4zl2q3d5y9hzm0000gn/T//ccW0HYIg.s:1941   .data.oPitch:0000000000000000 $d
/var/folders/sj/m2p5rq1x7lz4zl2q3d5y9hzm0000gn/T//ccW0HYIg.s:1952   .data.passPoint:0000000000000000 $d
/var/folders/sj/m2p5rq1x7lz4zl2q3d5y9hzm0000gn/T//ccW0HYIg.s:1959   .data.tempo:0000000000000000 $d
                           .group:0000000000000000 _ZN7daisysp3SvfD5Ev
                           .group:0000000000000000 _ZN7daisysp5MetroD5Ev
                           .group:0000000000000000 _ZN5daisy9ParameterD5Ev
                           .group:0000000000000000 _ZN5daisy10DaisyFieldD5Ev

UNDEFINED SYMBOLS
_ZN5daisy9I2CHandle11TransmitDmaEtPhtPFvPvNS0_6ResultEES2_
_ZNK5daisy9I2CHandle9GetConfigEv
_ZN5daisy9I2CHandle4InitERKNS0_6ConfigE
_ZN5daisy9Parameter7ProcessEv
_ZN7daisysp10Oscillator12CalcPhaseIncEf
_ZN7daisysp5AdEnv4InitEf
_ZN7daisysp5ATone4InitEf
_ZN7daisysp5ATone21CalculateCoefficientsEv
_ZN7daisysp3Svf4InitEf
_ZN7daisysp3Svf6SetResEf
_ZN7daisysp3Svf7SetFreqEf
memset
_ZN7daisysp5Metro7SetFreqEf
_ZN5daisy10DaisyField4InitEb
_ZN5daisy10DaisyField15AudioSampleRateEv
_ZN5daisy10DaisyField17AudioCallbackRateEv
_ZN5daisy9Parameter4InitENS_13AnalogControlEffNS0_5CurveE
_ZN7daisysp5Metro4InitEff
_ZN5daisy10DaisyField8StartAdcEv
_ZN5daisy10DaisyField10StartAudioEPFvPfS1_jE
_ZN7daisysp5Metro7ProcessEv
ARM GAS  /var/folders/sj/m2p5rq1x7lz4zl2q3d5y9hzm0000gn/T//ccW0HYIg.s 			page 38


_ZNK5daisy10DaisyField18KeyboardRisingEdgeEj
_ZN5daisy10DaisyField22ProcessDigitalControlsEv
_ZN5daisy10DaisyField21ProcessAnalogControlsEv
_ZN7daisysp5AdEnv7ProcessEv
_ZN7daisysp10Oscillator7ProcessEv
_ZN7daisysp3Svf7ProcessEf
_ZN7daisysp5ATone7ProcessERf
__aeabi_atexit
memcpy
__dso_handle
