ARM GAS  /var/folders/sj/m2p5rq1x7lz4zl2q3d5y9hzm0000gn/T//ccbOESkQ.s 			page 1


   1              		.cpu cortex-m7
   2              		.eabi_attribute 28, 1
   3              		.eabi_attribute 20, 1
   4              		.eabi_attribute 21, 1
   5              		.eabi_attribute 23, 3
   6              		.eabi_attribute 24, 1
   7              		.eabi_attribute 25, 1
   8              		.eabi_attribute 26, 1
   9              		.eabi_attribute 30, 2
  10              		.eabi_attribute 34, 1
  11              		.eabi_attribute 18, 4
  12              		.file	"Fake08.cpp"
  13              		.text
  14              		.section	.text._ZN7daisysp3SvfD2Ev,"axG",%progbits,_ZN7daisysp3SvfD5Ev,comdat
  15              		.align	1
  16              		.p2align 2,,3
  17              		.weak	_ZN7daisysp3SvfD2Ev
  18              		.arch armv7e-m
  19              		.syntax unified
  20              		.thumb
  21              		.thumb_func
  22              		.fpu fpv5-d16
  24              	_ZN7daisysp3SvfD2Ev:
  25              		@ args = 0, pretend = 0, frame = 0
  26              		@ frame_needed = 0, uses_anonymous_args = 0
  27              		@ link register save eliminated.
  28 0000 7047     		bx	lr
  30              		.weak	_ZN7daisysp3SvfD1Ev
  31              		.thumb_set _ZN7daisysp3SvfD1Ev,_ZN7daisysp3SvfD2Ev
  32 0002 00BF     		.section	.text._ZN7daisysp5MetroD2Ev,"axG",%progbits,_ZN7daisysp5MetroD5Ev,comdat
  33              		.align	1
  34              		.p2align 2,,3
  35              		.weak	_ZN7daisysp5MetroD2Ev
  36              		.syntax unified
  37              		.thumb
  38              		.thumb_func
  39              		.fpu fpv5-d16
  41              	_ZN7daisysp5MetroD2Ev:
  42              		@ args = 0, pretend = 0, frame = 0
  43              		@ frame_needed = 0, uses_anonymous_args = 0
  44              		@ link register save eliminated.
  45 0000 7047     		bx	lr
  47              		.weak	_ZN7daisysp5MetroD1Ev
  48              		.thumb_set _ZN7daisysp5MetroD1Ev,_ZN7daisysp5MetroD2Ev
  49 0002 00BF     		.section	.text._ZN5daisy9ParameterD2Ev,"axG",%progbits,_ZN5daisy9ParameterD5Ev,comdat
  50              		.align	1
  51              		.p2align 2,,3
  52              		.weak	_ZN5daisy9ParameterD2Ev
  53              		.syntax unified
  54              		.thumb
  55              		.thumb_func
  56              		.fpu fpv5-d16
  58              	_ZN5daisy9ParameterD2Ev:
  59              		@ args = 0, pretend = 0, frame = 0
  60              		@ frame_needed = 0, uses_anonymous_args = 0
  61              		@ link register save eliminated.
  62 0000 7047     		bx	lr
ARM GAS  /var/folders/sj/m2p5rq1x7lz4zl2q3d5y9hzm0000gn/T//ccbOESkQ.s 			page 2


  64              		.weak	_ZN5daisy9ParameterD1Ev
  65              		.thumb_set _ZN5daisy9ParameterD1Ev,_ZN5daisy9ParameterD2Ev
  66 0002 00BF     		.section	.text._ZN5daisy10DaisyFieldD2Ev,"axG",%progbits,_ZN5daisy10DaisyFieldD5Ev,comdat
  67              		.align	1
  68              		.p2align 2,,3
  69              		.weak	_ZN5daisy10DaisyFieldD2Ev
  70              		.syntax unified
  71              		.thumb
  72              		.thumb_func
  73              		.fpu fpv5-d16
  75              	_ZN5daisy10DaisyFieldD2Ev:
  76              		@ args = 0, pretend = 0, frame = 0
  77              		@ frame_needed = 0, uses_anonymous_args = 0
  78              		@ link register save eliminated.
  79 0000 7047     		bx	lr
  81              		.weak	_ZN5daisy10DaisyFieldD1Ev
  82              		.thumb_set _ZN5daisy10DaisyFieldD1Ev,_ZN5daisy10DaisyFieldD2Ev
  83 0002 00BF     		.section	.text._Z4Kickv,"ax",%progbits
  84              		.align	1
  85              		.p2align 2,,3
  86              		.global	_Z4Kickv
  87              		.syntax unified
  88              		.thumb
  89              		.thumb_func
  90              		.fpu fpv5-d16
  92              	_Z4Kickv:
  93              		@ args = 0, pretend = 0, frame = 0
  94              		@ frame_needed = 0, uses_anonymous_args = 0
  95              		@ link register save eliminated.
  96 0000 0123     		movs	r3, #1
  97 0002 0349     		ldr	r1, .L7
  98 0004 034A     		ldr	r2, .L7+4
  99 0006 81F83430 		strb	r3, [r1, #52]
 100 000a 82F83430 		strb	r3, [r2, #52]
 101 000e 7047     		bx	lr
 102              	.L8:
 103              		.align	2
 104              	.L7:
 105 0010 00000000 		.word	.LANCHOR0
 106 0014 00000000 		.word	.LANCHOR1
 108              		.section	.text._Z5Snarev,"ax",%progbits
 109              		.align	1
 110              		.p2align 2,,3
 111              		.global	_Z5Snarev
 112              		.syntax unified
 113              		.thumb
 114              		.thumb_func
 115              		.fpu fpv5-d16
 117              	_Z5Snarev:
 118              		@ args = 0, pretend = 0, frame = 0
 119              		@ frame_needed = 0, uses_anonymous_args = 0
 120              		@ link register save eliminated.
 121 0000 0123     		movs	r3, #1
 122 0002 0349     		ldr	r1, .L10
 123 0004 034A     		ldr	r2, .L10+4
 124 0006 81F86C30 		strb	r3, [r1, #108]
 125 000a 82F86C30 		strb	r3, [r2, #108]
ARM GAS  /var/folders/sj/m2p5rq1x7lz4zl2q3d5y9hzm0000gn/T//ccbOESkQ.s 			page 3


 126 000e 7047     		bx	lr
 127              	.L11:
 128              		.align	2
 129              	.L10:
 130 0010 00000000 		.word	.LANCHOR1
 131 0014 00000000 		.word	.LANCHOR0
 133              		.section	.text._Z3Hatv,"ax",%progbits
 134              		.align	1
 135              		.p2align 2,,3
 136              		.global	_Z3Hatv
 137              		.syntax unified
 138              		.thumb
 139              		.thumb_func
 140              		.fpu fpv5-d16
 142              	_Z3Hatv:
 143              		@ args = 0, pretend = 0, frame = 0
 144              		@ frame_needed = 0, uses_anonymous_args = 0
 145              		@ link register save eliminated.
 146 0000 024B     		ldr	r3, .L13
 147 0002 0122     		movs	r2, #1
 148 0004 83F8A420 		strb	r2, [r3, #164]
 149 0008 7047     		bx	lr
 150              	.L14:
 151 000a 00BF     		.align	2
 152              	.L13:
 153 000c 00000000 		.word	.LANCHOR1
 155              		.section	.text._Z5Laserv,"ax",%progbits
 156              		.align	1
 157              		.p2align 2,,3
 158              		.global	_Z5Laserv
 159              		.syntax unified
 160              		.thumb
 161              		.thumb_func
 162              		.fpu fpv5-d16
 164              	_Z5Laserv:
 165              		@ args = 0, pretend = 0, frame = 0
 166              		@ frame_needed = 0, uses_anonymous_args = 0
 167              		@ link register save eliminated.
 168 0000 0123     		movs	r3, #1
 169 0002 0349     		ldr	r1, .L16
 170 0004 034A     		ldr	r2, .L16+4
 171 0006 81F8DC30 		strb	r3, [r1, #220]
 172 000a 82F8DC30 		strb	r3, [r2, #220]
 173 000e 7047     		bx	lr
 174              	.L17:
 175              		.align	2
 176              	.L16:
 177 0010 00000000 		.word	.LANCHOR1
 178 0014 00000000 		.word	.LANCHOR0
 180              		.section	.text._Z4Buzzv,"ax",%progbits
 181              		.align	1
 182              		.p2align 2,,3
 183              		.global	_Z4Buzzv
 184              		.syntax unified
 185              		.thumb
 186              		.thumb_func
 187              		.fpu fpv5-d16
ARM GAS  /var/folders/sj/m2p5rq1x7lz4zl2q3d5y9hzm0000gn/T//ccbOESkQ.s 			page 4


 189              	_Z4Buzzv:
 190              		@ args = 0, pretend = 0, frame = 0
 191              		@ frame_needed = 0, uses_anonymous_args = 0
 192              		@ link register save eliminated.
 193 0000 7047     		bx	lr
 195 0002 00BF     		.section	.text.__tcf_0,"ax",%progbits
 196              		.align	1
 197              		.p2align 2,,3
 198              		.syntax unified
 199              		.thumb
 200              		.thumb_func
 201              		.fpu fpv5-d16
 203              	__tcf_0:
 204              		@ args = 0, pretend = 0, frame = 0
 205              		@ frame_needed = 0, uses_anonymous_args = 0
 206              		@ link register save eliminated.
 207 0000 7047     		bx	lr
 209 0002 00BF     		.section	.text.__tcf_3,"ax",%progbits
 210              		.align	1
 211              		.p2align 2,,3
 212              		.syntax unified
 213              		.thumb
 214              		.thumb_func
 215              		.fpu fpv5-d16
 217              	__tcf_3:
 218              		@ args = 0, pretend = 0, frame = 0
 219              		@ frame_needed = 0, uses_anonymous_args = 0
 220              		@ link register save eliminated.
 221 0000 7047     		bx	lr
 223 0002 00BF     		.section	.text.__tcf_4,"ax",%progbits
 224              		.align	1
 225              		.p2align 2,,3
 226              		.syntax unified
 227              		.thumb
 228              		.thumb_func
 229              		.fpu fpv5-d16
 231              	__tcf_4:
 232              		@ args = 0, pretend = 0, frame = 0
 233              		@ frame_needed = 0, uses_anonymous_args = 0
 234              		@ link register save eliminated.
 235 0000 7047     		bx	lr
 237 0002 00BF     		.section	.text.__tcf_1,"ax",%progbits
 238              		.align	1
 239              		.p2align 2,,3
 240              		.syntax unified
 241              		.thumb
 242              		.thumb_func
 243              		.fpu fpv5-d16
 245              	__tcf_1:
 246              		@ args = 0, pretend = 0, frame = 0
 247              		@ frame_needed = 0, uses_anonymous_args = 0
 248              		@ link register save eliminated.
 249 0000 7047     		bx	lr
 251 0002 00BF     		.section	.text.__tcf_2,"ax",%progbits
 252              		.align	1
 253              		.p2align 2,,3
 254              		.syntax unified
ARM GAS  /var/folders/sj/m2p5rq1x7lz4zl2q3d5y9hzm0000gn/T//ccbOESkQ.s 			page 5


 255              		.thumb
 256              		.thumb_func
 257              		.fpu fpv5-d16
 259              	__tcf_2:
 260              		@ args = 0, pretend = 0, frame = 0
 261              		@ frame_needed = 0, uses_anonymous_args = 0
 262              		@ link register save eliminated.
 263 0000 7047     		bx	lr
 265 0002 00BF     		.section	.text._ZN5daisy16LedDriverPca9685ILi2ELb1EE14TxCpltCallbackEPvNS_9I2CHandle6ResultE,"axG"
 266              		.align	1
 267              		.p2align 2,,3
 268              		.weak	_ZN5daisy16LedDriverPca9685ILi2ELb1EE14TxCpltCallbackEPvNS_9I2CHandle6ResultE
 269              		.syntax unified
 270              		.thumb
 271              		.thumb_func
 272              		.fpu fpv5-d16
 274              	_ZN5daisy16LedDriverPca9685ILi2ELb1EE14TxCpltCallbackEPvNS_9I2CHandle6ResultE:
 275              		@ args = 0, pretend = 0, frame = 0
 276              		@ frame_needed = 0, uses_anonymous_args = 0
 277 0000 10B5     		push	{r4, lr}
 278 0002 037D     		ldrb	r3, [r0, #20]	@ zero_extendqisi2
 279 0004 82B0     		sub	sp, sp, #8
 280 0006 0446     		mov	r4, r0
 281 0008 0133     		adds	r3, r3, #1
 282 000a 5BB2     		sxtb	r3, r3
 283 000c 012B     		cmp	r3, #1
 284 000e 0375     		strb	r3, [r0, #20]
 285 0010 03DD     		ble	.L25
 286 0012 FF23     		movs	r3, #255
 287 0014 0375     		strb	r3, [r0, #20]
 288              	.L24:
 289 0016 02B0     		add	sp, sp, #8
 290              		@ sp needed
 291 0018 10BD     		pop	{r4, pc}
 292              	.L25:
 293 001a 8168     		ldr	r1, [r0, #8]
 294 001c 03EB8312 		add	r2, r3, r3, lsl #6
 295 0020 0344     		add	r3, r3, r0
 296 0022 0A44     		add	r2, r2, r1
 297 0024 197B     		ldrb	r1, [r3, #12]	@ zero_extendqisi2
 298 0026 0A4B     		ldr	r3, .L31
 299 0028 41F04001 		orr	r1, r1, #64
 300 002c 0190     		str	r0, [sp, #4]
 301 002e 0093     		str	r3, [sp]
 302 0030 4123     		movs	r3, #65
 303 0032 FFF7FEFF 		bl	_ZN5daisy9I2CHandle11TransmitDmaEtPhtPFvPvNS0_6ResultEES2_
 304 0036 0028     		cmp	r0, #0
 305 0038 EDD0     		beq	.L24
 306 003a 2046     		mov	r0, r4
 307 003c FFF7FEFF 		bl	_ZNK5daisy9I2CHandle9GetConfigEv
 308 0040 0146     		mov	r1, r0
 309 0042 2046     		mov	r0, r4
 310 0044 02B0     		add	sp, sp, #8
 311              		@ sp needed
 312 0046 BDE81040 		pop	{r4, lr}
 313 004a FFF7FEBF 		b	_ZN5daisy9I2CHandle4InitERKNS0_6ConfigE
 314              	.L32:
ARM GAS  /var/folders/sj/m2p5rq1x7lz4zl2q3d5y9hzm0000gn/T//ccbOESkQ.s 			page 6


 315 004e 00BF     		.align	2
 316              	.L31:
 317 0050 00000000 		.word	_ZN5daisy16LedDriverPca9685ILi2ELb1EE14TxCpltCallbackEPvNS_9I2CHandle6ResultE
 319              		.section	.text._Z10SetupDrumsf,"ax",%progbits
 320              		.align	1
 321              		.p2align 2,,3
 322              		.global	_Z10SetupDrumsf
 323              		.syntax unified
 324              		.thumb
 325              		.thumb_func
 326              		.fpu fpv5-d16
 328              	_Z10SetupDrumsf:
 329              		@ args = 0, pretend = 0, frame = 0
 330              		@ frame_needed = 0, uses_anonymous_args = 0
 331 0000 2DE9F84F 		push	{r3, r4, r5, r6, r7, r8, r9, r10, fp, lr}
 332 0004 684C     		ldr	r4, .L37
 333 0006 6948     		ldr	r0, .L37+4
 334 0008 694D     		ldr	r5, .L37+8
 335 000a 6A4E     		ldr	r6, .L37+12
 336 000c DFF8ECA1 		ldr	r10, .L37+84
 337 0010 DFF8ECB1 		ldr	fp, .L37+88
 338 0014 2DED048B 		vpush.64	{d8, d9}
 339 0018 F0EE408A 		vmov.f32	s17, s0
 340 001c FFF7FEFF 		bl	_ZN5daisy9Parameter7ProcessEv
 341 0020 6548     		ldr	r0, .L37+16
 342 0022 B7EE008A 		vmov.f32	s16, #1.0e+0
 343 0026 84ED000A 		vstr.32	s0, [r4]
 344 002a FFF7FEFF 		bl	_ZN5daisy9Parameter7ProcessEv
 345 002e 6348     		ldr	r0, .L37+20
 346 0030 84ED010A 		vstr.32	s0, [r4, #4]
 347 0034 FFF7FEFF 		bl	_ZN5daisy9Parameter7ProcessEv
 348 0038 6148     		ldr	r0, .L37+24
 349 003a 84ED020A 		vstr.32	s0, [r4, #8]
 350 003e FFF7FEFF 		bl	_ZN5daisy9Parameter7ProcessEv
 351 0042 6048     		ldr	r0, .L37+28
 352 0044 84ED030A 		vstr.32	s0, [r4, #12]
 353 0048 FFF7FEFF 		bl	_ZN5daisy9Parameter7ProcessEv
 354 004c 5E48     		ldr	r0, .L37+32
 355 004e 84ED060A 		vstr.32	s0, [r4, #24]
 356 0052 FFF7FEFF 		bl	_ZN5daisy9Parameter7ProcessEv
 357 0056 F0EE407A 		vmov.f32	s15, s0
 358 005a 5C4B     		ldr	r3, .L37+36
 359 005c 0122     		movs	r2, #1
 360 005e B0EE680A 		vmov.f32	s0, s17
 361 0062 2846     		mov	r0, r5
 362 0064 C4ED077A 		vstr.32	s15, [r4, #28]
 363 0068 594C     		ldr	r4, .L37+40
 364 006a 5A60     		str	r2, [r3, #4]
 365 006c DA60     		str	r2, [r3, #12]
 366 006e 83ED008A 		vstr.32	s16, [r3]
 367 0072 83ED028A 		vstr.32	s16, [r3, #8]
 368 0076 FFF7FEFF 		bl	_ZN7daisysp5ATone4InitEf
 369 007a 2368     		ldr	r3, [r4]	@ float
 370 007c 2846     		mov	r0, r5
 371 007e EB60     		str	r3, [r5, #12]	@ float
 372 0080 FFF7FEFF 		bl	_ZN7daisysp5ATone21CalculateCoefficientsEv
 373 0084 05F11800 		add	r0, r5, #24
ARM GAS  /var/folders/sj/m2p5rq1x7lz4zl2q3d5y9hzm0000gn/T//ccbOESkQ.s 			page 7


 374 0088 B0EE680A 		vmov.f32	s0, s17
 375 008c FFF7FEFF 		bl	_ZN7daisysp5ATone4InitEf
 376 0090 2368     		ldr	r3, [r4]	@ float
 377 0092 05F11800 		add	r0, r5, #24
 378 0096 4F4C     		ldr	r4, .L37+44
 379 0098 6B62     		str	r3, [r5, #36]	@ float
 380 009a FFF7FEFF 		bl	_ZN7daisysp5ATone21CalculateCoefficientsEv
 381 009e C8EE289A 		vdiv.f32	s19, s16, s17
 382 00a2 4D4D     		ldr	r5, .L37+48
 383              	.L34:
 384 00a4 9FED4D8A 		vldr.32	s16, .L37+52
 385 00a8 4FF00009 		mov	r9, #0
 386 00ac 2046     		mov	r0, r4
 387 00ae C4ED038A 		vstr.32	s17, [r4, #12]
 388 00b2 84ED028A 		vstr.32	s16, [r4, #8]
 389 00b6 4FF07E57 		mov	r7, #1065353216
 390 00ba B6EE009A 		vmov.f32	s18, #5.0e-1
 391 00be C4ED049A 		vstr.32	s19, [r4, #16]
 392 00c2 C4F81490 		str	r9, [r4, #20]	@ float
 393 00c6 B0EE480A 		vmov.f32	s0, s16
 394 00ca DFF83881 		ldr	r8, .L37+92
 395 00ce 84ED019A 		vstr.32	s18, [r4, #4]
 396 00d2 FFF7FEFF 		bl	_ZN7daisysp10Oscillator12CalcPhaseIncEf
 397 00d6 F0EE407A 		vmov.f32	s15, s0
 398 00da 0123     		movs	r3, #1
 399 00dc 0021     		movs	r1, #0
 400 00de 84ED028A 		vstr.32	s16, [r4, #8]
 401 00e2 2046     		mov	r0, r4
 402 00e4 84F82530 		strb	r3, [r4, #37]
 403 00e8 B0EE480A 		vmov.f32	s0, s16
 404 00ec 84F82430 		strb	r3, [r4, #36]
 405 00f0 2834     		adds	r4, r4, #40
 406 00f2 04F8281C 		strb	r1, [r4, #-40]
 407 00f6 44ED047A 		vstr.32	s15, [r4, #-16]
 408 00fa FFF7FEFF 		bl	_ZN7daisysp10Oscillator12CalcPhaseIncEf
 409 00fe F0EE407A 		vmov.f32	s15, s0
 410 0102 3046     		mov	r0, r6
 411 0104 44F8247C 		str	r7, [r4, #-36]	@ float
 412 0108 B0EE680A 		vmov.f32	s0, s17
 413 010c 9FED348A 		vldr.32	s16, .L37+56
 414 0110 44ED047A 		vstr.32	s15, [r4, #-16]
 415 0114 3836     		adds	r6, r6, #56
 416 0116 FFF7FEFF 		bl	_ZN7daisysp5AdEnv4InitEf
 417 011a 2846     		mov	r0, r5
 418 011c B0EE680A 		vmov.f32	s0, s17
 419 0120 46F8308C 		str	r8, [r6, #-48]	@ float
 420 0124 06ED0B8A 		vstr.32	s16, [r6, #-44]
 421 0128 3835     		adds	r5, r5, #56
 422 012a 46F8207C 		str	r7, [r6, #-32]	@ float
 423 012e 46F8249C 		str	r9, [r6, #-36]	@ float
 424 0132 FFF7FEFF 		bl	_ZN7daisysp5AdEnv4InitEf
 425 0136 2B4B     		ldr	r3, .L37+60
 426 0138 BBEC017A 		vldmia.32	fp!, {s14}
 427 013c FAEC017A 		vldmia.32	r10!, {s15}
 428 0140 45F8183C 		str	r3, [r5, #-24]	@ float
 429 0144 284B     		ldr	r3, .L37+64
 430 0146 77EE877A 		vadd.f32	s15, s15, s14
ARM GAS  /var/folders/sj/m2p5rq1x7lz4zl2q3d5y9hzm0000gn/T//ccbOESkQ.s 			page 8


 431 014a 45F8308C 		str	r8, [r5, #-48]	@ float
 432 014e 9C42     		cmp	r4, r3
 433 0150 05ED0B8A 		vstr.32	s16, [r5, #-44]
 434 0154 05ED097A 		vstr.32	s14, [r5, #-36]
 435 0158 45ED087A 		vstr.32	s15, [r5, #-32]
 436 015c A2D1     		bne	.L34
 437 015e B0EE680A 		vmov.f32	s0, s17
 438 0162 2248     		ldr	r0, .L37+68
 439 0164 224C     		ldr	r4, .L37+72
 440 0166 FFF7FEFF 		bl	_ZN7daisysp3Svf4InitEf
 441 016a B0EE490A 		vmov.f32	s0, s18
 442 016e 1F48     		ldr	r0, .L37+68
 443 0170 FFF7FEFF 		bl	_ZN7daisysp3Svf6SetResEf
 444 0174 9FED1F0A 		vldr.32	s0, .L37+76
 445 0178 1C48     		ldr	r0, .L37+68
 446 017a FFF7FEFF 		bl	_ZN7daisysp3Svf7SetFreqEf
 447 017e B0EE680A 		vmov.f32	s0, s17
 448 0182 2046     		mov	r0, r4
 449 0184 FFF7FEFF 		bl	_ZN7daisysp3Svf4InitEf
 450 0188 B0EE490A 		vmov.f32	s0, s18
 451 018c 2046     		mov	r0, r4
 452 018e FFF7FEFF 		bl	_ZN7daisysp3Svf6SetResEf
 453 0192 9FED190A 		vldr.32	s0, .L37+80
 454 0196 2046     		mov	r0, r4
 455 0198 FFF7FEFF 		bl	_ZN7daisysp3Svf7SetFreqEf
 456 019c E760     		str	r7, [r4, #12]	@ float
 457 019e BDEC048B 		vldm	sp!, {d8-d9}
 458 01a2 BDE8F88F 		pop	{r3, r4, r5, r6, r7, r8, r9, r10, fp, pc}
 459              	.L38:
 460 01a6 00BF     		.align	2
 461              	.L37:
 462 01a8 00000000 		.word	.LANCHOR3
 463 01ac 00000000 		.word	.LANCHOR2
 464 01b0 00000000 		.word	.LANCHOR10
 465 01b4 00000000 		.word	.LANCHOR1
 466 01b8 00000000 		.word	.LANCHOR4
 467 01bc 00000000 		.word	.LANCHOR5
 468 01c0 00000000 		.word	.LANCHOR6
 469 01c4 00000000 		.word	.LANCHOR7
 470 01c8 00000000 		.word	.LANCHOR8
 471 01cc 00000000 		.word	.LANCHOR9
 472 01d0 00000000 		.word	.LANCHOR11
 473 01d4 00000000 		.word	.LANCHOR12
 474 01d8 00000000 		.word	.LANCHOR0
 475 01dc 0000C842 		.word	1120403456
 476 01e0 CDCC4C3E 		.word	1045220557
 477 01e4 000048C2 		.word	-1035468800
 478 01e8 C8000000 		.word	.LANCHOR12+200
 479 01ec 00000000 		.word	.LANCHOR15
 480 01f0 00000000 		.word	.LANCHOR16
 481 01f4 0000FA45 		.word	1174011904
 482 01f8 00007A44 		.word	1148846080
 483 01fc 00000000 		.word	.LANCHOR13
 484 0200 00000000 		.word	.LANCHOR14
 485 0204 0AD7233C 		.word	1008981770
 487              		.section	.text._Z6SetSeqPbb,"ax",%progbits
 488              		.align	1
ARM GAS  /var/folders/sj/m2p5rq1x7lz4zl2q3d5y9hzm0000gn/T//ccbOESkQ.s 			page 9


 489              		.p2align 2,,3
 490              		.global	_Z6SetSeqPbb
 491              		.syntax unified
 492              		.thumb
 493              		.thumb_func
 494              		.fpu fpv5-d16
 496              	_Z6SetSeqPbb:
 497              		@ args = 0, pretend = 0, frame = 0
 498              		@ frame_needed = 0, uses_anonymous_args = 0
 499              		@ link register save eliminated.
 500 0000 2022     		movs	r2, #32
 501 0002 FFF7FEBF 		b	memset
 503 0006 00BF     		.section	.text._Z12UpdateSwitchv,"ax",%progbits
 504              		.align	1
 505              		.p2align 2,,3
 506              		.global	_Z12UpdateSwitchv
 507              		.syntax unified
 508              		.thumb
 509              		.thumb_func
 510              		.fpu fpv5-d16
 512              	_Z12UpdateSwitchv:
 513              		@ args = 0, pretend = 0, frame = 0
 514              		@ frame_needed = 0, uses_anonymous_args = 0
 515 0000 10B5     		push	{r4, lr}
 516 0002 124C     		ldr	r4, .L46
 517 0004 94F86532 		ldrb	r3, [r4, #613]	@ zero_extendqisi2
 518 0008 7F2B     		cmp	r3, #127
 519 000a 05D1     		bne	.L41
 520 000c 104A     		ldr	r2, .L46+4
 521 000e 114B     		ldr	r3, .L46+8
 522 0010 1278     		ldrb	r2, [r2]	@ zero_extendqisi2
 523 0012 53F82230 		ldr	r3, [r3, r2, lsl #2]
 524 0016 9847     		blx	r3
 525              	.L41:
 526 0018 94F87532 		ldrb	r3, [r4, #629]	@ zero_extendqisi2
 527 001c 7F2B     		cmp	r3, #127
 528 001e 00D0     		beq	.L45
 529 0020 10BD     		pop	{r4, pc}
 530              	.L45:
 531 0022 0D48     		ldr	r0, .L46+12
 532 0024 D0ED007A 		vldr.32	s15, [r0]
 533 0028 F5EE407A 		vcmp.f32	s15, #0
 534 002c F1EE10FA 		vmrs	APSR_nzcv, FPSCR
 535 0030 05D0     		beq	.L43
 536 0032 9FED0A0A 		vldr.32	s0, .L46+16
 537 0036 BDE81040 		pop	{r4, lr}
 538 003a FFF7FEBF 		b	_ZN7daisysp5Metro7SetFreqEf
 539              	.L43:
 540 003e 084B     		ldr	r3, .L46+20
 541 0040 BDE81040 		pop	{r4, lr}
 542 0044 93ED000A 		vldr.32	s0, [r3]
 543 0048 FFF7FEBF 		b	_ZN7daisysp5Metro7SetFreqEf
 544              	.L47:
 545              		.align	2
 546              	.L46:
 547 004c 00000000 		.word	.LANCHOR17
 548 0050 00000000 		.word	.LANCHOR19
ARM GAS  /var/folders/sj/m2p5rq1x7lz4zl2q3d5y9hzm0000gn/T//ccbOESkQ.s 			page 10


 549 0054 00000000 		.word	.LANCHOR18
 550 0058 00000000 		.word	.LANCHOR20
 551 005c 00000000 		.word	0
 552 0060 00000000 		.word	.LANCHOR21
 554              		.section	.text.startup.main,"ax",%progbits
 555              		.align	1
 556              		.p2align 2,,3
 557              		.global	main
 558              		.syntax unified
 559              		.thumb
 560              		.thumb_func
 561              		.fpu fpv5-d16
 563              	main:
 564              		@ args = 0, pretend = 0, frame = 32
 565              		@ frame_needed = 0, uses_anonymous_args = 0
 566 0000 30B5     		push	{r4, r5, lr}
 567 0002 0021     		movs	r1, #0
 568 0004 5548     		ldr	r0, .L51
 569 0006 564D     		ldr	r5, .L51+4
 570 0008 2DED028B 		vpush.64	{d8}
 571 000c 89B0     		sub	sp, sp, #36
 572 000e FFF7FEFF 		bl	_ZN5daisy10DaisyField4InitEb
 573 0012 5248     		ldr	r0, .L51
 574 0014 FFF7FEFF 		bl	_ZN5daisy10DaisyField15AudioSampleRateEv
 575 0018 A5F52070 		sub	r0, r5, #640
 576 001c F0EE408A 		vmov.f32	s17, s0
 577 0020 01AC     		add	r4, sp, #4
 578 0022 FFF7FEFF 		bl	_ZN5daisy10DaisyField17AudioCallbackRateEv
 579 0026 F7EE000A 		vmov.f32	s1, #1.0e+0
 580 002a B0EE408A 		vmov.f32	s16, s0
 581 002e 9FED4D0A 		vldr.32	s0, .L51+8
 582 0032 0FCD     		ldmia	r5!, {r0, r1, r2, r3}
 583 0034 0FC4     		stmia	r4!, {r0, r1, r2, r3}
 584 0036 95E80700 		ldm	r5, {r0, r1, r2}
 585 003a 84E80700 		stm	r4, {r0, r1, r2}
 586 003e 0122     		movs	r2, #1
 587 0040 01A9     		add	r1, sp, #4
 588 0042 4948     		ldr	r0, .L51+12
 589 0044 FFF7FEFF 		bl	_ZN5daisy9Parameter4InitENS_13AnalogControlEffNS0_5CurveE
 590 0048 05F10C0C 		add	ip, r5, #12
 591 004c 0DF1040E 		add	lr, sp, #4
 592 0050 F7EE000A 		vmov.f32	s1, #1.0e+0
 593 0054 9FED430A 		vldr.32	s0, .L51+8
 594 0058 BCE80F00 		ldmia	ip!, {r0, r1, r2, r3}
 595 005c AEE80F00 		stmia	lr!, {r0, r1, r2, r3}
 596 0060 9CE80700 		ldm	ip, {r0, r1, r2}
 597 0064 84E80700 		stm	r4, {r0, r1, r2}
 598 0068 0022     		movs	r2, #0
 599 006a 01A9     		add	r1, sp, #4
 600 006c 3F48     		ldr	r0, .L51+16
 601 006e FFF7FEFF 		bl	_ZN5daisy9Parameter4InitENS_13AnalogControlEffNS0_5CurveE
 602 0072 05F1280C 		add	ip, r5, #40
 603 0076 0DF1040E 		add	lr, sp, #4
 604 007a F7EE000A 		vmov.f32	s1, #1.0e+0
 605 007e 9FED390A 		vldr.32	s0, .L51+8
 606 0082 BCE80F00 		ldmia	ip!, {r0, r1, r2, r3}
 607 0086 AEE80F00 		stmia	lr!, {r0, r1, r2, r3}
ARM GAS  /var/folders/sj/m2p5rq1x7lz4zl2q3d5y9hzm0000gn/T//ccbOESkQ.s 			page 11


 608 008a 9CE80700 		ldm	ip, {r0, r1, r2}
 609 008e 84E80700 		stm	r4, {r0, r1, r2}
 610 0092 0022     		movs	r2, #0
 611 0094 01A9     		add	r1, sp, #4
 612 0096 3648     		ldr	r0, .L51+20
 613 0098 FFF7FEFF 		bl	_ZN5daisy9Parameter4InitENS_13AnalogControlEffNS0_5CurveE
 614 009c 05F1440C 		add	ip, r5, #68
 615 00a0 0DF1040E 		add	lr, sp, #4
 616 00a4 F7EE000A 		vmov.f32	s1, #1.0e+0
 617 00a8 9FED2E0A 		vldr.32	s0, .L51+8
 618 00ac BCE80F00 		ldmia	ip!, {r0, r1, r2, r3}
 619 00b0 AEE80F00 		stmia	lr!, {r0, r1, r2, r3}
 620 00b4 9CE80700 		ldm	ip, {r0, r1, r2}
 621 00b8 84E80700 		stm	r4, {r0, r1, r2}
 622 00bc 0022     		movs	r2, #0
 623 00be 01A9     		add	r1, sp, #4
 624 00c0 2C48     		ldr	r0, .L51+24
 625 00c2 FFF7FEFF 		bl	_ZN5daisy9Parameter4InitENS_13AnalogControlEffNS0_5CurveE
 626 00c6 05F1980C 		add	ip, r5, #152
 627 00ca 0DF1040E 		add	lr, sp, #4
 628 00ce F3EE040A 		vmov.f32	s1, #2.0e+1
 629 00d2 B0EE000A 		vmov.f32	s0, #2.0e+0
 630 00d6 BCE80F00 		ldmia	ip!, {r0, r1, r2, r3}
 631 00da AEE80F00 		stmia	lr!, {r0, r1, r2, r3}
 632 00de 9CE80700 		ldm	ip, {r0, r1, r2}
 633 00e2 84E80700 		stm	r4, {r0, r1, r2}
 634 00e6 0222     		movs	r2, #2
 635 00e8 01A9     		add	r1, sp, #4
 636 00ea 2348     		ldr	r0, .L51+28
 637 00ec FFF7FEFF 		bl	_ZN5daisy9Parameter4InitENS_13AnalogControlEffNS0_5CurveE
 638 00f0 05F1B40C 		add	ip, r5, #180
 639 00f4 0DF1040E 		add	lr, sp, #4
 640 00f8 F1EE020A 		vmov.f32	s1, #4.5e+0
 641 00fc B6EE000A 		vmov.f32	s0, #5.0e-1
 642 0100 BCE80F00 		ldmia	ip!, {r0, r1, r2, r3}
 643 0104 AEE80F00 		stmia	lr!, {r0, r1, r2, r3}
 644 0108 9CE80700 		ldm	ip, {r0, r1, r2}
 645 010c 84E80700 		stm	r4, {r0, r1, r2}
 646 0110 0022     		movs	r2, #0
 647 0112 01A9     		add	r1, sp, #4
 648 0114 1948     		ldr	r0, .L51+32
 649 0116 FFF7FEFF 		bl	_ZN5daisy9Parameter4InitENS_13AnalogControlEffNS0_5CurveE
 650 011a B0EE680A 		vmov.f32	s0, s17
 651 011e FFF7FEFF 		bl	_Z10SetupDrumsf
 652 0122 F0EE480A 		vmov.f32	s1, s16
 653 0126 B0EE080A 		vmov.f32	s0, #3.0e+0
 654 012a 1548     		ldr	r0, .L51+36
 655 012c FFF7FEFF 		bl	_ZN7daisysp5Metro4InitEff
 656 0130 0021     		movs	r1, #0
 657 0132 A022     		movs	r2, #160
 658 0134 1348     		ldr	r0, .L51+40
 659 0136 FFF7FEFF 		bl	memset
 660 013a 134B     		ldr	r3, .L51+44
 661 013c 0022     		movs	r2, #0
 662 013e A5F52470 		sub	r0, r5, #656
 663 0142 C3E90022 		strd	r2, r2, [r3]
 664 0146 C3E90222 		strd	r2, r2, [r3, #8]
ARM GAS  /var/folders/sj/m2p5rq1x7lz4zl2q3d5y9hzm0000gn/T//ccbOESkQ.s 			page 12


 665 014a 1A61     		str	r2, [r3, #16]
 666 014c FFF7FEFF 		bl	_ZN5daisy10DaisyField8StartAdcEv
 667 0150 0E49     		ldr	r1, .L51+48
 668 0152 A5F52470 		sub	r0, r5, #656
 669 0156 FFF7FEFF 		bl	_ZN5daisy10DaisyField10StartAudioEPFvPfS1_jE
 670              	.L49:
 671 015a FEE7     		b	.L49
 672              	.L52:
 673              		.align	2
 674              	.L51:
 675 015c 00000000 		.word	.LANCHOR17
 676 0160 80020000 		.word	.LANCHOR17+640
 677 0164 00000000 		.word	0
 678 0168 00000000 		.word	.LANCHOR2
 679 016c 00000000 		.word	.LANCHOR4
 680 0170 00000000 		.word	.LANCHOR5
 681 0174 00000000 		.word	.LANCHOR6
 682 0178 00000000 		.word	.LANCHOR7
 683 017c 00000000 		.word	.LANCHOR8
 684 0180 00000000 		.word	.LANCHOR20
 685 0184 00000000 		.word	.LANCHOR22
 686 0188 00000000 		.word	.LANCHOR3
 687 018c 00000000 		.word	_Z13AudioCallbackPfS_j
 689              		.section	.text._Z14IncrementStepsv,"ax",%progbits
 690              		.align	1
 691              		.p2align 2,,3
 692              		.global	_Z14IncrementStepsv
 693              		.syntax unified
 694              		.thumb
 695              		.thumb_func
 696              		.fpu fpv5-d16
 698              	_Z14IncrementStepsv:
 699              		@ args = 0, pretend = 0, frame = 0
 700              		@ frame_needed = 0, uses_anonymous_args = 0
 701              		@ link register save eliminated.
 702 0000 034A     		ldr	r2, .L54
 703 0002 1378     		ldrb	r3, [r2]	@ zero_extendqisi2
 704 0004 0133     		adds	r3, r3, #1
 705 0006 03F00F03 		and	r3, r3, #15
 706 000a 1370     		strb	r3, [r2]
 707 000c 7047     		bx	lr
 708              	.L55:
 709 000e 00BF     		.align	2
 710              	.L54:
 711 0010 00000000 		.word	.LANCHOR23
 713              		.section	.text._Z11ProcessTickv,"ax",%progbits
 714              		.align	1
 715              		.p2align 2,,3
 716              		.global	_Z11ProcessTickv
 717              		.syntax unified
 718              		.thumb
 719              		.thumb_func
 720              		.fpu fpv5-d16
 722              	_Z11ProcessTickv:
 723              		@ args = 0, pretend = 0, frame = 0
 724              		@ frame_needed = 0, uses_anonymous_args = 0
 725 0000 70B5     		push	{r4, r5, r6, lr}
ARM GAS  /var/folders/sj/m2p5rq1x7lz4zl2q3d5y9hzm0000gn/T//ccbOESkQ.s 			page 13


 726 0002 1148     		ldr	r0, .L73
 727 0004 FFF7FEFF 		bl	_ZN7daisysp5Metro7ProcessEv
 728 0008 E0B1     		cbz	r0, .L56
 729 000a 104D     		ldr	r5, .L73+4
 730 000c 0024     		movs	r4, #0
 731 000e 104E     		ldr	r6, .L73+8
 732 0010 2A78     		ldrb	r2, [r5]	@ zero_extendqisi2
 733 0012 06EB4413 		add	r3, r6, r4, lsl #5
 734 0016 0F49     		ldr	r1, .L73+12
 735 0018 0132     		adds	r2, r2, #1
 736 001a 02F00F02 		and	r2, r2, #15
 737 001e 9B5C     		ldrb	r3, [r3, r2]	@ zero_extendqisi2
 738 0020 2A70     		strb	r2, [r5]
 739 0022 13B1     		cbz	r3, .L58
 740              	.L71:
 741 0024 51F82430 		ldr	r3, [r1, r4, lsl #2]
 742 0028 9847     		blx	r3
 743              	.L58:
 744 002a 0134     		adds	r4, r4, #1
 745 002c 052C     		cmp	r4, #5
 746 002e 09D0     		beq	.L56
 747              	.L72:
 748 0030 2A78     		ldrb	r2, [r5]	@ zero_extendqisi2
 749 0032 06EB4413 		add	r3, r6, r4, lsl #5
 750 0036 0749     		ldr	r1, .L73+12
 751 0038 9B5C     		ldrb	r3, [r3, r2]	@ zero_extendqisi2
 752 003a 002B     		cmp	r3, #0
 753 003c F2D1     		bne	.L71
 754 003e 0134     		adds	r4, r4, #1
 755 0040 052C     		cmp	r4, #5
 756 0042 F5D1     		bne	.L72
 757              	.L56:
 758 0044 70BD     		pop	{r4, r5, r6, pc}
 759              	.L74:
 760 0046 00BF     		.align	2
 761              	.L73:
 762 0048 00000000 		.word	.LANCHOR20
 763 004c 00000000 		.word	.LANCHOR23
 764 0050 00000000 		.word	.LANCHOR22
 765 0054 00000000 		.word	.LANCHOR18
 767              		.section	.text._Z10UpdateLedsv,"ax",%progbits
 768              		.align	1
 769              		.p2align 2,,3
 770              		.global	_Z10UpdateLedsv
 771              		.syntax unified
 772              		.thumb
 773              		.thumb_func
 774              		.fpu fpv5-d16
 776              	_Z10UpdateLedsv:
 777              		@ args = 0, pretend = 0, frame = 0
 778              		@ frame_needed = 0, uses_anonymous_args = 0
 779 0000 2DE9F041 		push	{r4, r5, r6, r7, r8, lr}
 780 0004 DFF83081 		ldr	r8, .L95+32
 781 0008 82B0     		sub	sp, sp, #8
 782 000a 0024     		movs	r4, #0
 783 000c 424E     		ldr	r6, .L95
 784 000e 434D     		ldr	r5, .L95+4
ARM GAS  /var/folders/sj/m2p5rq1x7lz4zl2q3d5y9hzm0000gn/T//ccbOESkQ.s 			page 14


 785 0010 434F     		ldr	r7, .L95+8
 786 0012 2FE0     		b	.L80
 787              	.L77:
 788 0014 434A     		ldr	r2, .L95+12
 789 0016 444B     		ldr	r3, .L95+16
 790 0018 1278     		ldrb	r2, [r2]	@ zero_extendqisi2
 791 001a 03EB4213 		add	r3, r3, r2, lsl #5
 792 001e 195D     		ldrb	r1, [r3, r4]	@ zero_extendqisi2
 793 0020 0029     		cmp	r1, #0
 794 0022 3DD0     		beq	.L79
 795 0024 414B     		ldr	r3, .L95+20
 796 0026 B221     		movs	r1, #178
 797 0028 2B60     		str	r3, [r5]	@ float
 798              	.L78:
 799 002a 58F8043F 		ldr	r3, [r8, #4]!
 800 002e 07EB4101 		add	r1, r7, r1, lsl #1
 801 0032 FA6C     		ldr	r2, [r7, #76]
 802 0034 40F6FE7C 		movw	ip, #4094
 803 0038 C3F30710 		ubfx	r0, r3, #4, #8
 804 003c 03F00F03 		and	r3, r3, #15
 805 0040 B1F85EE0 		ldrh	lr, [r1, #94]
 806 0044 00EB8010 		add	r0, r0, r0, lsl #6
 807 0048 E645     		cmp	lr, ip
 808 004a 00EB8303 		add	r3, r0, r3, lsl #2
 809 004e 1344     		add	r3, r3, r2
 810 0050 B3F80110 		ldrh	r1, [r3, #1]	@ unaligned
 811 0054 C1F30B01 		ubfx	r1, r1, #0, #12
 812 0058 0EEB0100 		add	r0, lr, r1
 813 005c C0F30B00 		ubfx	r0, r0, #0, #12
 814 0060 A3F80300 		strh	r0, [r3, #3]	@ unaligned
 815 0064 01D9     		bls	.L85
 816 0066 41F48051 		orr	r1, r1, #4096
 817              	.L85:
 818 006a 0134     		adds	r4, r4, #1
 819 006c A3F80110 		strh	r1, [r3, #1]	@ unaligned
 820 0070 102C     		cmp	r4, #16
 821 0072 18D0     		beq	.L93
 822              	.L80:
 823 0074 2146     		mov	r1, r4
 824 0076 2A48     		ldr	r0, .L95+8
 825 0078 FFF7FEFF 		bl	_ZNK5daisy10DaisyField18KeyboardRisingEdgeEj
 826 007c 40B1     		cbz	r0, .L76
 827 007e 294A     		ldr	r2, .L95+12
 828 0080 294B     		ldr	r3, .L95+16
 829 0082 1278     		ldrb	r2, [r2]	@ zero_extendqisi2
 830 0084 03EB4213 		add	r3, r3, r2, lsl #5
 831 0088 1A5D     		ldrb	r2, [r3, r4]	@ zero_extendqisi2
 832 008a 82F00102 		eor	r2, r2, #1
 833 008e 1A55     		strb	r2, [r3, r4]
 834              	.L76:
 835 0090 3378     		ldrb	r3, [r6]	@ zero_extendqisi2
 836 0092 A342     		cmp	r3, r4
 837 0094 BED1     		bne	.L77
 838 0096 4FF07E53 		mov	r3, #1065353216
 839 009a FF21     		movs	r1, #255
 840 009c 2B60     		str	r3, [r5]	@ float
 841 009e C4E7     		b	.L78
ARM GAS  /var/folders/sj/m2p5rq1x7lz4zl2q3d5y9hzm0000gn/T//ccbOESkQ.s 			page 15


 842              	.L79:
 843 00a0 0023     		movs	r3, #0
 844 00a2 2B60     		str	r3, [r5]	@ float
 845 00a4 C1E7     		b	.L78
 846              	.L93:
 847 00a6 396D     		ldr	r1, [r7, #80]
 848 00a8 0023     		movs	r3, #0
 849 00aa C7E91312 		strd	r1, r2, [r7, #76]
 850              	.L81:
 851 00ae 02EB8304 		add	r4, r2, r3, lsl #2
 852 00b2 01EB8300 		add	r0, r1, r3, lsl #2
 853 00b6 0133     		adds	r3, r3, #1
 854 00b8 B4F80340 		ldrh	r4, [r4, #3]	@ unaligned
 855 00bc 102B     		cmp	r3, #16
 856 00be A0F80340 		strh	r4, [r0, #3]	@ unaligned
 857 00c2 F4D1     		bne	.L81
 858 00c4 0023     		movs	r3, #0
 859              	.L82:
 860 00c6 02EB8304 		add	r4, r2, r3, lsl #2
 861 00ca 01EB8300 		add	r0, r1, r3, lsl #2
 862 00ce 0133     		adds	r3, r3, #1
 863 00d0 B4F84440 		ldrh	r4, [r4, #68]	@ unaligned
 864 00d4 102B     		cmp	r3, #16
 865 00d6 A0F84440 		strh	r4, [r0, #68]	@ unaligned
 866 00da F4D1     		bne	.L82
 867 00dc 144C     		ldr	r4, .L95+24
 868 00de 0023     		movs	r3, #0
 869 00e0 1448     		ldr	r0, .L95+28
 870 00e2 97F85410 		ldrb	r1, [r7, #84]	@ zero_extendqisi2
 871 00e6 0090     		str	r0, [sp]
 872 00e8 2046     		mov	r0, r4
 873 00ea 87F85C30 		strb	r3, [r7, #92]
 874 00ee 41F04001 		orr	r1, r1, #64
 875 00f2 4123     		movs	r3, #65
 876 00f4 0194     		str	r4, [sp, #4]
 877 00f6 FFF7FEFF 		bl	_ZN5daisy9I2CHandle11TransmitDmaEtPhtPFvPvNS0_6ResultEES2_
 878 00fa 10B9     		cbnz	r0, .L94
 879 00fc 02B0     		add	sp, sp, #8
 880              		@ sp needed
 881 00fe BDE8F081 		pop	{r4, r5, r6, r7, r8, pc}
 882              	.L94:
 883 0102 2046     		mov	r0, r4
 884 0104 FFF7FEFF 		bl	_ZNK5daisy9I2CHandle9GetConfigEv
 885 0108 0146     		mov	r1, r0
 886 010a 2046     		mov	r0, r4
 887 010c 02B0     		add	sp, sp, #8
 888              		@ sp needed
 889 010e BDE8F041 		pop	{r4, r5, r6, r7, r8, lr}
 890 0112 FFF7FEBF 		b	_ZN5daisy9I2CHandle4InitERKNS0_6ConfigE
 891              	.L96:
 892 0116 00BF     		.align	2
 893              	.L95:
 894 0118 00000000 		.word	.LANCHOR23
 895 011c 00000000 		.word	.LANCHOR25
 896 0120 00000000 		.word	.LANCHOR17
 897 0124 00000000 		.word	.LANCHOR19
 898 0128 00000000 		.word	.LANCHOR22
ARM GAS  /var/folders/sj/m2p5rq1x7lz4zl2q3d5y9hzm0000gn/T//ccbOESkQ.s 			page 16


 899 012c 3333333F 		.word	1060320051
 900 0130 48000000 		.word	.LANCHOR17+72
 901 0134 00000000 		.word	_ZN5daisy16LedDriverPca9685ILi2ELb1EE14TxCpltCallbackEPvNS_9I2CHandle6ResultE
 902 0138 FCFFFFFF 		.word	.LANCHOR24-4
 904              		.section	.text._Z10UpdateVarsv,"ax",%progbits
 905              		.align	1
 906              		.p2align 2,,3
 907              		.global	_Z10UpdateVarsv
 908              		.syntax unified
 909              		.thumb
 910              		.thumb_func
 911              		.fpu fpv5-d16
 913              	_Z10UpdateVarsv:
 914              		@ args = 0, pretend = 0, frame = 8
 915              		@ frame_needed = 0, uses_anonymous_args = 0
 916 0000 2DE9F04F 		push	{r4, r5, r6, r7, r8, r9, r10, fp, lr}
 917 0004 6C48     		ldr	r0, .L109+8
 918 0006 83B0     		sub	sp, sp, #12
 919 0008 6C4C     		ldr	r4, .L109+12
 920 000a FFF7FEFF 		bl	_ZN5daisy9Parameter7ProcessEv
 921 000e 6C48     		ldr	r0, .L109+16
 922 0010 84ED000A 		vstr.32	s0, [r4]
 923 0014 FFF7FEFF 		bl	_ZN5daisy9Parameter7ProcessEv
 924 0018 6A48     		ldr	r0, .L109+20
 925 001a 84ED010A 		vstr.32	s0, [r4, #4]
 926 001e FFF7FEFF 		bl	_ZN5daisy9Parameter7ProcessEv
 927 0022 6948     		ldr	r0, .L109+24
 928 0024 84ED020A 		vstr.32	s0, [r4, #8]
 929 0028 FFF7FEFF 		bl	_ZN5daisy9Parameter7ProcessEv
 930 002c 6748     		ldr	r0, .L109+28
 931 002e 84ED030A 		vstr.32	s0, [r4, #12]
 932 0032 FFF7FEFF 		bl	_ZN5daisy9Parameter7ProcessEv
 933 0036 6648     		ldr	r0, .L109+32
 934 0038 84ED060A 		vstr.32	s0, [r4, #24]
 935 003c FFF7FEFF 		bl	_ZN5daisy9Parameter7ProcessEv
 936 0040 644B     		ldr	r3, .L109+36
 937 0042 2046     		mov	r0, r4
 938 0044 644D     		ldr	r5, .L109+40
 939 0046 1978     		ldrb	r1, [r3]	@ zero_extendqisi2
 940 0048 0023     		movs	r3, #0
 941 004a 644A     		ldr	r2, .L109+44
 942 004c 05EB0111 		add	r1, r5, r1, lsl #4
 943 0050 84ED070A 		vstr.32	s0, [r4, #28]
 944              	.L101:
 945 0054 F0EC016A 		vldmia.32	r0!, {s13}
 946 0058 5E1C     		adds	r6, r3, #1
 947 005a B2EC017A 		vldmia.32	r2!, {s14}
 948 005e 36EEC77A 		vsub.f32	s14, s13, s14
 949 0062 9FED535B 		vldr.64	d5, .L109
 950 0066 B0EEC77A 		vabs.f32	s14, s14
 951 006a B7EEC77A 		vcvt.f64.f32	d7, s14
 952 006e B4EEC57B 		vcmpe.f64	d7, d5
 953 0072 F1EE10FA 		vmrs	APSR_nzcv, FPSCR
 954 0076 05DD     		ble	.L98
 955 0078 032B     		cmp	r3, #3
 956 007a 42ED016A 		vstr.32	s13, [r2, #-4]
 957 007e 98BF     		it	ls
ARM GAS  /var/folders/sj/m2p5rq1x7lz4zl2q3d5y9hzm0000gn/T//ccbOESkQ.s 			page 17


 958 0080 C1ED006A 		vstrls.32	s13, [r1]
 959              	.L98:
 960 0084 F3B2     		uxtb	r3, r6
 961 0086 0431     		adds	r1, r1, #4
 962 0088 082B     		cmp	r3, #8
 963 008a E3D1     		bne	.L101
 964 008c DFF87081 		ldr	r8, .L109+80
 965 0090 534F     		ldr	r7, .L109+48
 966 0092 544E     		ldr	r6, .L109+52
 967 0094 C346     		mov	fp, r8
 968 0096 DFF86CA1 		ldr	r10, .L109+84
 969 009a BE46     		mov	lr, r7
 970 009c DFF86891 		ldr	r9, .L109+88
 971 00a0 3146     		mov	r1, r6
 972 00a2 4D4B     		ldr	r3, .L109+40
 973 00a4 D446     		mov	ip, r10
 974 00a6 504A     		ldr	r2, .L109+56
 975 00a8 CDF80490 		str	r9, [sp, #4]
 976              	.L102:
 977 00ac 0198     		ldr	r0, [sp, #4]
 978 00ae 1033     		adds	r3, r3, #16
 979 00b0 13ED045A 		vldr.32	s10, [r3, #-16]
 980 00b4 3831     		adds	r1, r1, #56
 981 00b6 F0EC017A 		vldmia.32	r0!, {s15}
 982 00ba 3832     		adds	r2, r2, #56
 983 00bc 13ED036A 		vldr.32	s12, [r3, #-12]
 984 00c0 FBEC015A 		vldmia.32	fp!, {s11}
 985 00c4 BEEC017A 		vldmia.32	lr!, {s14}
 986 00c8 FCEC016A 		vldmia.32	ip!, {s13}
 987 00cc A5EE257A 		vfma.f32	s14, s10, s11
 988 00d0 0190     		str	r0, [sp, #4]
 989 00d2 E6EE267A 		vfma.f32	s15, s12, s13
 990 00d6 4548     		ldr	r0, .L109+60
 991 00d8 9842     		cmp	r0, r3
 992 00da 01ED087A 		vstr.32	s14, [r1, #-32]
 993 00de 42ED0B7A 		vstr.32	s15, [r2, #-44]
 994 00e2 E3D1     		bne	.L102
 995 00e4 D5ED025A 		vldr.32	s11, [r5, #8]
 996 00e8 9AED006A 		vldr.32	s12, [r10]
 997 00ec D9ED007A 		vldr.32	s15, [r9]
 998 00f0 D5ED046A 		vldr.32	s13, [r5, #16]
 999 00f4 E5EE867A 		vfma.f32	s15, s11, s12
 1000 00f8 98ED017A 		vldr.32	s14, [r8, #4]
 1001 00fc 97ED010A 		vldr.32	s0, [r7, #4]
 1002 0100 3B48     		ldr	r0, .L109+64
 1003 0102 A6EE870A 		vfma.f32	s0, s13, s14
 1004 0106 C6ED037A 		vstr.32	s15, [r6, #12]
 1005 010a FFF7FEFF 		bl	_ZN7daisysp3Svf7SetFreqEf
 1006 010e 95ED060A 		vldr.32	s0, [r5, #24]
 1007 0112 3748     		ldr	r0, .L109+64
 1008 0114 FFF7FEFF 		bl	_ZN7daisysp3Svf6SetResEf
 1009 0118 95ED087A 		vldr.32	s14, [r5, #32]
 1010 011c D8ED027A 		vldr.32	s15, [r8, #8]
 1011 0120 97ED020A 		vldr.32	s0, [r7, #8]
 1012 0124 3348     		ldr	r0, .L109+68
 1013 0126 A7EE270A 		vfma.f32	s0, s14, s15
 1014 012a FFF7FEFF 		bl	_ZN7daisysp3Svf7SetFreqEf
ARM GAS  /var/folders/sj/m2p5rq1x7lz4zl2q3d5y9hzm0000gn/T//ccbOESkQ.s 			page 18


 1015 012e 95ED0A0A 		vldr.32	s0, [r5, #40]
 1016 0132 3048     		ldr	r0, .L109+68
 1017 0134 FFF7FEFF 		bl	_ZN7daisysp3Svf6SetResEf
 1018 0138 97ED037A 		vldr.32	s14, [r7, #12]
 1019 013c D8ED036A 		vldr.32	s13, [r8, #12]
 1020 0140 B0EE476A 		vmov.f32	s12, s14
 1021 0144 95ED0C4A 		vldr.32	s8, [r5, #48]
 1022 0148 D5ED0D5A 		vldr.32	s11, [r5, #52]
 1023 014c 2A48     		ldr	r0, .L109+72
 1024 014e A4EE266A 		vfma.f32	s12, s8, s13
 1025 0152 9AED035A 		vldr.32	s10, [r10, #12]
 1026 0156 A6EEA57A 		vfma.f32	s14, s13, s11
 1027 015a D9ED037A 		vldr.32	s15, [r9, #12]
 1028 015e D5ED0E4A 		vldr.32	s9, [r5, #56]
 1029 0162 D0ED006A 		vldr.32	s13, [r0]
 1030 0166 E4EE857A 		vfma.f32	s15, s9, s10
 1031 016a 94ED060A 		vldr.32	s0, [r4, #24]
 1032 016e F5EE406A 		vcmp.f32	s13, #0
 1033 0172 224B     		ldr	r3, .L109+76
 1034 0174 1C4A     		ldr	r2, .L109+56
 1035 0176 86ED2F6A 		vstr.32	s12, [r6, #188]
 1036 017a F1EE10FA 		vmrs	APSR_nzcv, FPSCR
 1037 017e 86ED307A 		vstr.32	s14, [r6, #192]
 1038 0182 83ED000A 		vstr.32	s0, [r3]
 1039 0186 C6ED2D7A 		vstr.32	s15, [r6, #180]
 1040 018a C2ED2D7A 		vstr.32	s15, [r2, #180]
 1041 018e 0CD1     		bne	.L108
 1042              	.L103:
 1043 0190 D4ED077A 		vldr.32	s15, [r4, #28]
 1044 0194 0F4A     		ldr	r2, .L109+36
 1045 0196 FBFE677A 		vrintm.f32	s15, s15
 1046 019a FCEEE77A 		vcvt.u32.f32	s15, s15
 1047 019e 17EE903A 		vmov	r3, s15	@ int
 1048 01a2 1370     		strb	r3, [r2]
 1049 01a4 03B0     		add	sp, sp, #12
 1050              		@ sp needed
 1051 01a6 BDE8F08F 		pop	{r4, r5, r6, r7, r8, r9, r10, fp, pc}
 1052              	.L108:
 1053 01aa FFF7FEFF 		bl	_ZN7daisysp5Metro7SetFreqEf
 1054 01ae EFE7     		b	.L103
 1055              	.L110:
 1056              		.align	3
 1057              	.L109:
 1058 01b0 7B14AE47 		.word	1202590843
 1059 01b4 E17A743F 		.word	1064598241
 1060 01b8 00000000 		.word	.LANCHOR2
 1061 01bc 00000000 		.word	.LANCHOR26
 1062 01c0 00000000 		.word	.LANCHOR4
 1063 01c4 00000000 		.word	.LANCHOR5
 1064 01c8 00000000 		.word	.LANCHOR6
 1065 01cc 00000000 		.word	.LANCHOR7
 1066 01d0 00000000 		.word	.LANCHOR8
 1067 01d4 00000000 		.word	.LANCHOR19
 1068 01d8 00000000 		.word	.LANCHOR27
 1069 01dc 00000000 		.word	.LANCHOR3
 1070 01e0 00000000 		.word	.LANCHOR14
 1071 01e4 00000000 		.word	.LANCHOR0
ARM GAS  /var/folders/sj/m2p5rq1x7lz4zl2q3d5y9hzm0000gn/T//ccbOESkQ.s 			page 19


 1072 01e8 00000000 		.word	.LANCHOR1
 1073 01ec 30000000 		.word	.LANCHOR27+48
 1074 01f0 00000000 		.word	.LANCHOR16
 1075 01f4 00000000 		.word	.LANCHOR15
 1076 01f8 00000000 		.word	.LANCHOR20
 1077 01fc 00000000 		.word	.LANCHOR21
 1078 0200 00000000 		.word	.LANCHOR13
 1079 0204 00000000 		.word	.LANCHOR28
 1080 0208 00000000 		.word	.LANCHOR29
 1082              		.section	.text._Z13AudioCallbackPfS_j,"ax",%progbits
 1083              		.align	1
 1084              		.p2align 2,,3
 1085              		.global	_Z13AudioCallbackPfS_j
 1086              		.syntax unified
 1087              		.thumb
 1088              		.thumb_func
 1089              		.fpu fpv5-d16
 1091              	_Z13AudioCallbackPfS_j:
 1092              		@ args = 0, pretend = 0, frame = 16
 1093              		@ frame_needed = 0, uses_anonymous_args = 0
 1094 0000 2DE9F04F 		push	{r4, r5, r6, r7, r8, r9, r10, fp, lr}
 1095 0004 2DED0A8B 		vpush.64	{d8, d9, d10, d11, d12}
 1096 0008 85B0     		sub	sp, sp, #20
 1097 000a 1446     		mov	r4, r2
 1098 000c 8B46     		mov	fp, r1
 1099 000e FFF7FEFF 		bl	_Z11ProcessTickv
 1100 0012 7148     		ldr	r0, .L119+16
 1101 0014 FFF7FEFF 		bl	_ZN5daisy10DaisyField22ProcessDigitalControlsEv
 1102 0018 6F48     		ldr	r0, .L119+16
 1103 001a FFF7FEFF 		bl	_ZN5daisy10DaisyField21ProcessAnalogControlsEv
 1104 001e FFF7FEFF 		bl	_Z12UpdateSwitchv
 1105 0022 FFF7FEFF 		bl	_Z10UpdateVarsv
 1106 0026 FFF7FEFF 		bl	_Z10UpdateLedsv
 1107 002a 002C     		cmp	r4, #0
 1108 002c 00F0C480 		beq	.L111
 1109 0030 631E     		subs	r3, r4, #1
 1110 0032 4FF00008 		mov	r8, #0
 1111 0036 694D     		ldr	r5, .L119+20
 1112 0038 5B08     		lsrs	r3, r3, #1
 1113 003a 694C     		ldr	r4, .L119+24
 1114 003c 694F     		ldr	r7, .L119+28
 1115 003e DFF8C8A1 		ldr	r10, .L119+64
 1116 0042 DFF8CC91 		ldr	r9, .L119+72
 1117 0046 684E     		ldr	r6, .L119+32
 1118 0048 0193     		str	r3, [sp, #4]
 1119 004a 9FED5F9B 		vldr.64	d9, .L119
 1120              	.L113:
 1121 004e 6748     		ldr	r0, .L119+36
 1122 0050 0BF1080B 		add	fp, fp, #8
 1123 0054 FFF7FEFF 		bl	_ZN7daisysp5AdEnv7ProcessEv
 1124 0058 6548     		ldr	r0, .L119+40
 1125 005a B0EE40BA 		vmov.f32	s22, s0
 1126 005e FFF7FEFF 		bl	_ZN7daisysp5AdEnv7ProcessEv
 1127 0062 6448     		ldr	r0, .L119+44
 1128 0064 F0EE40BA 		vmov.f32	s23, s0
 1129 0068 FFF7FEFF 		bl	_ZN7daisysp5AdEnv7ProcessEv
 1130 006c 6248     		ldr	r0, .L119+48
ARM GAS  /var/folders/sj/m2p5rq1x7lz4zl2q3d5y9hzm0000gn/T//ccbOESkQ.s 			page 20


 1131 006e B0EE40CA 		vmov.f32	s24, s0
 1132 0072 FFF7FEFF 		bl	_ZN7daisysp5AdEnv7ProcessEv
 1133 0076 6148     		ldr	r0, .L119+52
 1134 0078 B0EE40AA 		vmov.f32	s20, s0
 1135 007c FFF7FEFF 		bl	_ZN7daisysp5AdEnv7ProcessEv
 1136 0080 6968     		ldr	r1, [r5, #4]
 1137 0082 44F2A710 		movw	r0, #16807
 1138 0086 EB68     		ldr	r3, [r5, #12]
 1139 0088 DFED5D7A 		vldr.32	s15, .L119+56
 1140 008c 00FB01F1 		mul	r1, r0, r1
 1141 0090 95ED027A 		vldr.32	s14, [r5, #8]
 1142 0094 00FB03F3 		mul	r3, r0, r3
 1143 0098 95ED000A 		vldr.32	s0, [r5]
 1144 009c 06EE901A 		vmov	s13, r1	@ int
 1145 00a0 5848     		ldr	r0, .L119+60
 1146 00a2 6960     		str	r1, [r5, #4]
 1147 00a4 F8EEE68A 		vcvt.f32.s32	s17, s13
 1148 00a8 06EE903A 		vmov	s13, r3	@ int
 1149 00ac EB60     		str	r3, [r5, #12]
 1150 00ae F8EEE6AA 		vcvt.f32.s32	s21, s13
 1151 00b2 68EEA78A 		vmul.f32	s17, s17, s15
 1152 00b6 6AEEA7AA 		vmul.f32	s21, s21, s15
 1153 00ba 68EE808A 		vmul.f32	s17, s17, s0
 1154 00be 6AEE87AA 		vmul.f32	s21, s21, s14
 1155 00c2 FFF7FEFF 		bl	_ZN7daisysp5AdEnv7ProcessEv
 1156 00c6 4648     		ldr	r0, .L119+24
 1157 00c8 84ED020A 		vstr.32	s0, [r4, #8]
 1158 00cc FFF7FEFF 		bl	_ZN7daisysp10Oscillator12CalcPhaseIncEf
 1159 00d0 6BEE0B7A 		vmul.f32	s15, s22, s22
 1160 00d4 97ED037A 		vldr.32	s14, [r7, #12]
 1161 00d8 4148     		ldr	r0, .L119+24
 1162 00da 67EE877A 		vmul.f32	s15, s15, s14
 1163 00de 84ED060A 		vstr.32	s0, [r4, #24]
 1164 00e2 C4ED017A 		vstr.32	s15, [r4, #4]
 1165 00e6 FFF7FEFF 		bl	_ZN7daisysp10Oscillator7ProcessEv
 1166 00ea B7EECB7A 		vcvt.f64.f32	d7, s22
 1167 00ee B7EEC05A 		vcvt.f64.f32	d5, s0
 1168 00f2 4548     		ldr	r0, .L119+64
 1169 00f4 6BEEA88A 		vmul.f32	s17, s23, s17
 1170 00f8 9FED356B 		vldr.64	d6, .L119+8
 1171 00fc 28EEAB0A 		vmul.f32	s0, s17, s23
 1172 0100 29EE066B 		vmul.f64	d6, d9, d6
 1173 0104 26EE076B 		vmul.f64	d6, d6, d7
 1174 0108 A7EE065B 		vfma.f64	d5, d7, d6
 1175 010c B0EE458B 		vmov.f64	d8, d5
 1176 0110 FFF7FEFF 		bl	_ZN7daisysp3Svf7ProcessEf
 1177 0114 DAF83030 		ldr	r3, [r10, #48]	@ float
 1178 0118 02A9     		add	r1, sp, #8
 1179 011a 3C48     		ldr	r0, .L119+68
 1180 011c 0293     		str	r3, [sp, #8]	@ float
 1181 011e FFF7FEFF 		bl	_ZN7daisysp5ATone7ProcessERf
 1182 0122 3B48     		ldr	r0, .L119+72
 1183 0124 B0EE40BA 		vmov.f32	s22, s0
 1184 0128 2CEE2A0A 		vmul.f32	s0, s24, s21
 1185 012c D7ED07CA 		vldr.32	s25, [r7, #28]
 1186 0130 FFF7FEFF 		bl	_ZN7daisysp3Svf7ProcessEf
 1187 0134 D9F83430 		ldr	r3, [r9, #52]	@ float
ARM GAS  /var/folders/sj/m2p5rq1x7lz4zl2q3d5y9hzm0000gn/T//ccbOESkQ.s 			page 21


 1188 0138 03A9     		add	r1, sp, #12
 1189 013a 3648     		ldr	r0, .L119+76
 1190 013c 0393     		str	r3, [sp, #12]	@ float
 1191 013e FFF7FEFF 		bl	_ZN7daisysp5ATone7ProcessERf
 1192 0142 D7ED0BBA 		vldr.32	s23, [r7, #44]
 1193 0146 2BEE2CBA 		vmul.f32	s22, s22, s25
 1194 014a 3348     		ldr	r0, .L119+80
 1195 014c 60EE2BAA 		vmul.f32	s21, s0, s23
 1196 0150 FFF7FEFF 		bl	_ZN7daisysp5AdEnv7ProcessEv
 1197 0154 3148     		ldr	r0, .L119+84
 1198 0156 84ED200A 		vstr.32	s0, [r4, #128]
 1199 015a FFF7FEFF 		bl	_ZN7daisysp10Oscillator12CalcPhaseIncEf
 1200 015e 2AEE0AAA 		vmul.f32	s20, s20, s20
 1201 0162 D7ED0F7A 		vldr.32	s15, [r7, #60]
 1202 0166 2D48     		ldr	r0, .L119+84
 1203 0168 2AEE27AA 		vmul.f32	s20, s20, s15
 1204 016c 84ED240A 		vstr.32	s0, [r4, #144]
 1205 0170 84ED1FAA 		vstr.32	s20, [r4, #124]
 1206 0174 FFF7FEFF 		bl	_ZN7daisysp10Oscillator7ProcessEv
 1207 0178 B7EEC88B 		vcvt.f32.f64	s16, d8
 1208 017c DFED287A 		vldr.32	s15, .L119+88
 1209 0180 019A     		ldr	r2, [sp, #4]
 1210 0182 ACEE8B8A 		vfma.f32	s16, s25, s22
 1211 0186 4245     		cmp	r2, r8
 1212 0188 08F10108 		add	r8, r8, #1
 1213 018c ABEEAA8A 		vfma.f32	s16, s23, s21
 1214 0190 38EE000A 		vadd.f32	s0, s16, s0
 1215 0194 30EE270A 		vadd.f32	s0, s0, s15
 1216 0198 0BED020A 		vstr.32	s0, [fp, #-8]
 1217 019c 0BED010A 		vstr.32	s0, [fp, #-4]
 1218 01a0 C6ED007A 		vstr.32	s15, [r6]
 1219 01a4 C6ED017A 		vstr.32	s15, [r6, #4]
 1220 01a8 C6ED027A 		vstr.32	s15, [r6, #8]
 1221 01ac C6ED037A 		vstr.32	s15, [r6, #12]
 1222 01b0 C6ED047A 		vstr.32	s15, [r6, #16]
 1223 01b4 7FF44BAF 		bne	.L113
 1224              	.L111:
 1225 01b8 05B0     		add	sp, sp, #20
 1226              		@ sp needed
 1227 01ba BDEC0A8B 		vldm	sp!, {d8-d12}
 1228 01be BDE8F08F 		pop	{r4, r5, r6, r7, r8, r9, r10, fp, pc}
 1229              	.L120:
 1230 01c2 00BFAFF3 		.align	3
 1230      0080
 1231              	.L119:
 1232 01c8 00000000 		.word	0
 1233 01cc 00000000 		.word	0
 1234 01d0 FCA9F1D2 		.word	-755914244
 1235 01d4 4D62503F 		.word	1062232653
 1236 01d8 00000000 		.word	.LANCHOR17
 1237 01dc 00000000 		.word	.LANCHOR9
 1238 01e0 00000000 		.word	.LANCHOR12
 1239 01e4 00000000 		.word	.LANCHOR27
 1240 01e8 00000000 		.word	.LANCHOR30
 1241 01ec 00000000 		.word	.LANCHOR1
 1242 01f0 38000000 		.word	.LANCHOR1+56
 1243 01f4 70000000 		.word	.LANCHOR1+112
ARM GAS  /var/folders/sj/m2p5rq1x7lz4zl2q3d5y9hzm0000gn/T//ccbOESkQ.s 			page 22


 1244 01f8 A8000000 		.word	.LANCHOR1+168
 1245 01fc E0000000 		.word	.LANCHOR1+224
 1246 0200 00000030 		.word	805306368
 1247 0204 00000000 		.word	.LANCHOR0
 1248 0208 00000000 		.word	.LANCHOR16
 1249 020c 00000000 		.word	.LANCHOR10
 1250 0210 00000000 		.word	.LANCHOR15
 1251 0214 18000000 		.word	.LANCHOR10+24
 1252 0218 A8000000 		.word	.LANCHOR0+168
 1253 021c 78000000 		.word	.LANCHOR12+120
 1254 0220 00000000 		.word	0
 1256              		.section	.text._Z15ProcessControlsv,"ax",%progbits
 1257              		.align	1
 1258              		.p2align 2,,3
 1259              		.global	_Z15ProcessControlsv
 1260              		.syntax unified
 1261              		.thumb
 1262              		.thumb_func
 1263              		.fpu fpv5-d16
 1265              	_Z15ProcessControlsv:
 1266              		@ args = 0, pretend = 0, frame = 0
 1267              		@ frame_needed = 0, uses_anonymous_args = 0
 1268 0000 08B5     		push	{r3, lr}
 1269 0002 0748     		ldr	r0, .L123
 1270 0004 FFF7FEFF 		bl	_ZN5daisy10DaisyField22ProcessDigitalControlsEv
 1271 0008 0548     		ldr	r0, .L123
 1272 000a FFF7FEFF 		bl	_ZN5daisy10DaisyField21ProcessAnalogControlsEv
 1273 000e FFF7FEFF 		bl	_Z12UpdateSwitchv
 1274 0012 FFF7FEFF 		bl	_Z10UpdateVarsv
 1275 0016 BDE80840 		pop	{r3, lr}
 1276 001a FFF7FEBF 		b	_Z10UpdateLedsv
 1277              	.L124:
 1278 001e 00BF     		.align	2
 1279              	.L123:
 1280 0020 00000000 		.word	.LANCHOR17
 1282              		.section	.text.startup._GLOBAL__sub_I_p_Pitch,"ax",%progbits
 1283              		.align	1
 1284              		.p2align 2,,3
 1285              		.syntax unified
 1286              		.thumb
 1287              		.thumb_func
 1288              		.fpu fpv5-d16
 1290              	_GLOBAL__sub_I_p_Pitch:
 1291              		@ args = 0, pretend = 0, frame = 0
 1292              		@ frame_needed = 0, uses_anonymous_args = 0
 1293 0000 70B5     		push	{r4, r5, r6, lr}
 1294 0002 2C4C     		ldr	r4, .L127
 1295 0004 0025     		movs	r5, #0
 1296 0006 2C49     		ldr	r1, .L127+4
 1297 0008 2246     		mov	r2, r4
 1298 000a 2C48     		ldr	r0, .L127+8
 1299 000c FFF7FEFF 		bl	__aeabi_atexit
 1300 0010 2246     		mov	r2, r4
 1301 0012 2949     		ldr	r1, .L127+4
 1302 0014 2A48     		ldr	r0, .L127+12
 1303 0016 FFF7FEFF 		bl	__aeabi_atexit
 1304 001a 2246     		mov	r2, r4
ARM GAS  /var/folders/sj/m2p5rq1x7lz4zl2q3d5y9hzm0000gn/T//ccbOESkQ.s 			page 23


 1305 001c 2649     		ldr	r1, .L127+4
 1306 001e 2948     		ldr	r0, .L127+16
 1307 0020 FFF7FEFF 		bl	__aeabi_atexit
 1308 0024 2246     		mov	r2, r4
 1309 0026 2449     		ldr	r1, .L127+4
 1310 0028 2748     		ldr	r0, .L127+20
 1311 002a 284E     		ldr	r6, .L127+24
 1312 002c FFF7FEFF 		bl	__aeabi_atexit
 1313 0030 2246     		mov	r2, r4
 1314 0032 2149     		ldr	r1, .L127+4
 1315 0034 2648     		ldr	r0, .L127+28
 1316 0036 FFF7FEFF 		bl	__aeabi_atexit
 1317 003a 2246     		mov	r2, r4
 1318 003c 1E49     		ldr	r1, .L127+4
 1319 003e 2548     		ldr	r0, .L127+32
 1320 0040 FFF7FEFF 		bl	__aeabi_atexit
 1321 0044 2449     		ldr	r1, .L127+36
 1322 0046 4FF40072 		mov	r2, #512
 1323 004a 06F15E00 		add	r0, r6, #94
 1324 004e 7561     		str	r5, [r6, #20]
 1325 0050 B564     		str	r5, [r6, #72]
 1326 0052 FFF7FEFF 		bl	memcpy
 1327 0056 2246     		mov	r2, r4
 1328 0058 2049     		ldr	r1, .L127+40
 1329 005a 3046     		mov	r0, r6
 1330 005c FFF7FEFF 		bl	__aeabi_atexit
 1331 0060 2246     		mov	r2, r4
 1332 0062 1F49     		ldr	r1, .L127+44
 1333 0064 2846     		mov	r0, r5
 1334 0066 FFF7FEFF 		bl	__aeabi_atexit
 1335 006a 2246     		mov	r2, r4
 1336 006c 1D49     		ldr	r1, .L127+48
 1337 006e 2846     		mov	r0, r5
 1338 0070 FFF7FEFF 		bl	__aeabi_atexit
 1339 0074 2246     		mov	r2, r4
 1340 0076 1C49     		ldr	r1, .L127+52
 1341 0078 2846     		mov	r0, r5
 1342 007a FFF7FEFF 		bl	__aeabi_atexit
 1343 007e 2246     		mov	r2, r4
 1344 0080 1A49     		ldr	r1, .L127+56
 1345 0082 2846     		mov	r0, r5
 1346 0084 FFF7FEFF 		bl	__aeabi_atexit
 1347 0088 2246     		mov	r2, r4
 1348 008a 1949     		ldr	r1, .L127+60
 1349 008c 1948     		ldr	r0, .L127+64
 1350 008e FFF7FEFF 		bl	__aeabi_atexit
 1351 0092 2246     		mov	r2, r4
 1352 0094 1649     		ldr	r1, .L127+60
 1353 0096 1848     		ldr	r0, .L127+68
 1354 0098 FFF7FEFF 		bl	__aeabi_atexit
 1355 009c 2246     		mov	r2, r4
 1356 009e 1749     		ldr	r1, .L127+72
 1357 00a0 2846     		mov	r0, r5
 1358 00a2 FFF7FEFF 		bl	__aeabi_atexit
 1359 00a6 2246     		mov	r2, r4
 1360 00a8 1549     		ldr	r1, .L127+76
 1361 00aa 1648     		ldr	r0, .L127+80
ARM GAS  /var/folders/sj/m2p5rq1x7lz4zl2q3d5y9hzm0000gn/T//ccbOESkQ.s 			page 24


 1362 00ac BDE87040 		pop	{r4, r5, r6, lr}
 1363 00b0 FFF7FEBF 		b	__aeabi_atexit
 1364              	.L128:
 1365              		.align	2
 1366              	.L127:
 1367 00b4 00000000 		.word	__dso_handle
 1368 00b8 00000000 		.word	_ZN5daisy9ParameterD1Ev
 1369 00bc 00000000 		.word	.LANCHOR2
 1370 00c0 00000000 		.word	.LANCHOR4
 1371 00c4 00000000 		.word	.LANCHOR5
 1372 00c8 00000000 		.word	.LANCHOR6
 1373 00cc 00000000 		.word	.LANCHOR17
 1374 00d0 00000000 		.word	.LANCHOR8
 1375 00d4 00000000 		.word	.LANCHOR7
 1376 00d8 00000000 		.word	.LANCHOR31
 1377 00dc 00000000 		.word	_ZN5daisy10DaisyFieldD1Ev
 1378 00e0 00000000 		.word	__tcf_0
 1379 00e4 00000000 		.word	__tcf_1
 1380 00e8 00000000 		.word	__tcf_2
 1381 00ec 00000000 		.word	__tcf_3
 1382 00f0 00000000 		.word	_ZN7daisysp3SvfD1Ev
 1383 00f4 00000000 		.word	.LANCHOR15
 1384 00f8 00000000 		.word	.LANCHOR16
 1385 00fc 00000000 		.word	__tcf_4
 1386 0100 00000000 		.word	_ZN7daisysp5MetroD1Ev
 1387 0104 00000000 		.word	.LANCHOR20
 1389              		.section	.init_array,"aw",%init_array
 1390              		.align	2
 1391 0000 00000000 		.word	_GLOBAL__sub_I_p_Pitch(target1)
 1392              		.global	stepLED
 1393              		.global	Drum
 1394              		.global	tempo
 1395              		.global	Seq
 1396              		.global	oldMode
 1397              		.global	mode
 1398              		.global	Step
 1399              		.global	tick
 1400              		.global	passPoint
 1401              		.global	highPass
 1402              		.global	sn
 1403              		.global	flt
 1404              		.global	osc
 1405              		.global	pitchEnv
 1406              		.global	ampEnv
 1407              		.global	noise
 1408              		.global	knob_leds
 1409              		.global	keyboard_leds
 1410              		.global	buttons
 1411              		.global	hardware
 1412              		.global	trig
 1413              		.global	oDec
 1414              		.global	oPitch
 1415              		.global	mDec
 1416              		.global	mPitch
 1417              		.global	kold
 1418              		.global	kvals
 1419              		.global	params
ARM GAS  /var/folders/sj/m2p5rq1x7lz4zl2q3d5y9hzm0000gn/T//ccbOESkQ.s 			page 25


 1420              		.global	p_tempo
 1421              		.global	p_mode
 1422              		.global	p_Amp
 1423              		.global	p_Fx
 1424              		.global	p_Dec
 1425              		.global	p_Pitch
 1426              		.section	.rodata
 1427              		.align	2
 1428              		.set	.LANCHOR31,. + 0
 1429              	.LC0:
 1430 0000 0000     		.short	0
 1431 0002 0100     		.short	1
 1432 0004 0100     		.short	1
 1433 0006 0100     		.short	1
 1434 0008 0100     		.short	1
 1435 000a 0100     		.short	1
 1436 000c 0100     		.short	1
 1437 000e 0100     		.short	1
 1438 0010 0100     		.short	1
 1439 0012 0100     		.short	1
 1440 0014 0100     		.short	1
 1441 0016 0100     		.short	1
 1442 0018 0200     		.short	2
 1443 001a 0200     		.short	2
 1444 001c 0200     		.short	2
 1445 001e 0200     		.short	2
 1446 0020 0200     		.short	2
 1447 0022 0200     		.short	2
 1448 0024 0200     		.short	2
 1449 0026 0300     		.short	3
 1450 0028 0300     		.short	3
 1451 002a 0400     		.short	4
 1452 002c 0400     		.short	4
 1453 002e 0500     		.short	5
 1454 0030 0500     		.short	5
 1455 0032 0600     		.short	6
 1456 0034 0700     		.short	7
 1457 0036 0800     		.short	8
 1458 0038 0800     		.short	8
 1459 003a 0900     		.short	9
 1460 003c 0A00     		.short	10
 1461 003e 0B00     		.short	11
 1462 0040 0C00     		.short	12
 1463 0042 0D00     		.short	13
 1464 0044 0F00     		.short	15
 1465 0046 1000     		.short	16
 1466 0048 1100     		.short	17
 1467 004a 1200     		.short	18
 1468 004c 1400     		.short	20
 1469 004e 1500     		.short	21
 1470 0050 1700     		.short	23
 1471 0052 1900     		.short	25
 1472 0054 1A00     		.short	26
 1473 0056 1C00     		.short	28
 1474 0058 1E00     		.short	30
 1475 005a 2000     		.short	32
 1476 005c 2200     		.short	34
ARM GAS  /var/folders/sj/m2p5rq1x7lz4zl2q3d5y9hzm0000gn/T//ccbOESkQ.s 			page 26


 1477 005e 2400     		.short	36
 1478 0060 2600     		.short	38
 1479 0062 2800     		.short	40
 1480 0064 2B00     		.short	43
 1481 0066 2D00     		.short	45
 1482 0068 3000     		.short	48
 1483 006a 3200     		.short	50
 1484 006c 3500     		.short	53
 1485 006e 3800     		.short	56
 1486 0070 3B00     		.short	59
 1487 0072 3E00     		.short	62
 1488 0074 4100     		.short	65
 1489 0076 4400     		.short	68
 1490 0078 4700     		.short	71
 1491 007a 4B00     		.short	75
 1492 007c 4E00     		.short	78
 1493 007e 5200     		.short	82
 1494 0080 5500     		.short	85
 1495 0082 5900     		.short	89
 1496 0084 5D00     		.short	93
 1497 0086 6100     		.short	97
 1498 0088 6500     		.short	101
 1499 008a 6900     		.short	105
 1500 008c 6E00     		.short	110
 1501 008e 7200     		.short	114
 1502 0090 7700     		.short	119
 1503 0092 7B00     		.short	123
 1504 0094 8000     		.short	128
 1505 0096 8500     		.short	133
 1506 0098 8A00     		.short	138
 1507 009a 8F00     		.short	143
 1508 009c 9500     		.short	149
 1509 009e 9A00     		.short	154
 1510 00a0 9F00     		.short	159
 1511 00a2 A500     		.short	165
 1512 00a4 AB00     		.short	171
 1513 00a6 B100     		.short	177
 1514 00a8 B700     		.short	183
 1515 00aa BD00     		.short	189
 1516 00ac C300     		.short	195
 1517 00ae CA00     		.short	202
 1518 00b0 D000     		.short	208
 1519 00b2 D700     		.short	215
 1520 00b4 DE00     		.short	222
 1521 00b6 E500     		.short	229
 1522 00b8 EC00     		.short	236
 1523 00ba F300     		.short	243
 1524 00bc FA00     		.short	250
 1525 00be 0201     		.short	258
 1526 00c0 0A01     		.short	266
 1527 00c2 1101     		.short	273
 1528 00c4 1901     		.short	281
 1529 00c6 2201     		.short	290
 1530 00c8 2A01     		.short	298
 1531 00ca 3201     		.short	306
 1532 00cc 3B01     		.short	315
 1533 00ce 4401     		.short	324
ARM GAS  /var/folders/sj/m2p5rq1x7lz4zl2q3d5y9hzm0000gn/T//ccbOESkQ.s 			page 27


 1534 00d0 4C01     		.short	332
 1535 00d2 5501     		.short	341
 1536 00d4 5F01     		.short	351
 1537 00d6 6801     		.short	360
 1538 00d8 7101     		.short	369
 1539 00da 7B01     		.short	379
 1540 00dc 8501     		.short	389
 1541 00de 8F01     		.short	399
 1542 00e0 9901     		.short	409
 1543 00e2 A301     		.short	419
 1544 00e4 AE01     		.short	430
 1545 00e6 B801     		.short	440
 1546 00e8 C301     		.short	451
 1547 00ea CE01     		.short	462
 1548 00ec D901     		.short	473
 1549 00ee E501     		.short	485
 1550 00f0 F001     		.short	496
 1551 00f2 FC01     		.short	508
 1552 00f4 0802     		.short	520
 1553 00f6 1402     		.short	532
 1554 00f8 2002     		.short	544
 1555 00fa 2C02     		.short	556
 1556 00fc 3902     		.short	569
 1557 00fe 4602     		.short	582
 1558 0100 5202     		.short	594
 1559 0102 6002     		.short	608
 1560 0104 6D02     		.short	621
 1561 0106 7A02     		.short	634
 1562 0108 8802     		.short	648
 1563 010a 9602     		.short	662
 1564 010c A402     		.short	676
 1565 010e B202     		.short	690
 1566 0110 C002     		.short	704
 1567 0112 CF02     		.short	719
 1568 0114 DE02     		.short	734
 1569 0116 ED02     		.short	749
 1570 0118 FC02     		.short	764
 1571 011a 0B03     		.short	779
 1572 011c 1B03     		.short	795
 1573 011e 2B03     		.short	811
 1574 0120 3B03     		.short	827
 1575 0122 4B03     		.short	843
 1576 0124 5B03     		.short	859
 1577 0126 6C03     		.short	876
 1578 0128 7D03     		.short	893
 1579 012a 8E03     		.short	910
 1580 012c 9F03     		.short	927
 1581 012e B003     		.short	944
 1582 0130 C203     		.short	962
 1583 0132 D403     		.short	980
 1584 0134 E603     		.short	998
 1585 0136 F803     		.short	1016
 1586 0138 0A04     		.short	1034
 1587 013a 1D04     		.short	1053
 1588 013c 3004     		.short	1072
 1589 013e 4304     		.short	1091
 1590 0140 5604     		.short	1110
ARM GAS  /var/folders/sj/m2p5rq1x7lz4zl2q3d5y9hzm0000gn/T//ccbOESkQ.s 			page 28


 1591 0142 6A04     		.short	1130
 1592 0144 7E04     		.short	1150
 1593 0146 9204     		.short	1170
 1594 0148 A604     		.short	1190
 1595 014a BA04     		.short	1210
 1596 014c CF04     		.short	1231
 1597 014e E404     		.short	1252
 1598 0150 F904     		.short	1273
 1599 0152 0E05     		.short	1294
 1600 0154 2405     		.short	1316
 1601 0156 3A05     		.short	1338
 1602 0158 5005     		.short	1360
 1603 015a 6605     		.short	1382
 1604 015c 7C05     		.short	1404
 1605 015e 9305     		.short	1427
 1606 0160 AA05     		.short	1450
 1607 0162 C105     		.short	1473
 1608 0164 D905     		.short	1497
 1609 0166 F005     		.short	1520
 1610 0168 0806     		.short	1544
 1611 016a 2006     		.short	1568
 1612 016c 3906     		.short	1593
 1613 016e 5106     		.short	1617
 1614 0170 6A06     		.short	1642
 1615 0172 8306     		.short	1667
 1616 0174 9D06     		.short	1693
 1617 0176 B606     		.short	1718
 1618 0178 D006     		.short	1744
 1619 017a EA06     		.short	1770
 1620 017c 0507     		.short	1797
 1621 017e 1F07     		.short	1823
 1622 0180 3A07     		.short	1850
 1623 0182 5507     		.short	1877
 1624 0184 7107     		.short	1905
 1625 0186 8C07     		.short	1932
 1626 0188 A807     		.short	1960
 1627 018a C407     		.short	1988
 1628 018c E107     		.short	2017
 1629 018e FD07     		.short	2045
 1630 0190 1A08     		.short	2074
 1631 0192 3708     		.short	2103
 1632 0194 5508     		.short	2133
 1633 0196 7208     		.short	2162
 1634 0198 9008     		.short	2192
 1635 019a AF08     		.short	2223
 1636 019c CD08     		.short	2253
 1637 019e EC08     		.short	2284
 1638 01a0 0B09     		.short	2315
 1639 01a2 2A09     		.short	2346
 1640 01a4 4A09     		.short	2378
 1641 01a6 6A09     		.short	2410
 1642 01a8 8A09     		.short	2442
 1643 01aa AA09     		.short	2474
 1644 01ac CB09     		.short	2507
 1645 01ae EC09     		.short	2540
 1646 01b0 0D0A     		.short	2573
 1647 01b2 2E0A     		.short	2606
ARM GAS  /var/folders/sj/m2p5rq1x7lz4zl2q3d5y9hzm0000gn/T//ccbOESkQ.s 			page 29


 1648 01b4 500A     		.short	2640
 1649 01b6 720A     		.short	2674
 1650 01b8 940A     		.short	2708
 1651 01ba B70A     		.short	2743
 1652 01bc DA0A     		.short	2778
 1653 01be FD0A     		.short	2813
 1654 01c0 210B     		.short	2849
 1655 01c2 440B     		.short	2884
 1656 01c4 680B     		.short	2920
 1657 01c6 8D0B     		.short	2957
 1658 01c8 B10B     		.short	2993
 1659 01ca D60B     		.short	3030
 1660 01cc FB0B     		.short	3067
 1661 01ce 210C     		.short	3105
 1662 01d0 470C     		.short	3143
 1663 01d2 6D0C     		.short	3181
 1664 01d4 930C     		.short	3219
 1665 01d6 BA0C     		.short	3258
 1666 01d8 E10C     		.short	3297
 1667 01da 080D     		.short	3336
 1668 01dc 300D     		.short	3376
 1669 01de 580D     		.short	3416
 1670 01e0 800D     		.short	3456
 1671 01e2 A80D     		.short	3496
 1672 01e4 D10D     		.short	3537
 1673 01e6 FA0D     		.short	3578
 1674 01e8 230E     		.short	3619
 1675 01ea 4D0E     		.short	3661
 1676 01ec 770E     		.short	3703
 1677 01ee A10E     		.short	3745
 1678 01f0 CC0E     		.short	3788
 1679 01f2 F70E     		.short	3831
 1680 01f4 220F     		.short	3874
 1681 01f6 4E0F     		.short	3918
 1682 01f8 7A0F     		.short	3962
 1683 01fa A60F     		.short	4006
 1684 01fc D20F     		.short	4050
 1685 01fe FF0F     		.short	4095
 1686              		.section	.bss.Seq,"aw",%nobits
 1687              		.align	2
 1688              		.set	.LANCHOR22,. + 0
 1691              	Seq:
 1692 0000 00000000 		.space	160
 1692      00000000 
 1692      00000000 
 1692      00000000 
 1692      00000000 
 1693              		.section	.bss.Step,"aw",%nobits
 1694              		.set	.LANCHOR23,. + 0
 1697              	Step:
 1698 0000 00       		.space	1
 1699              		.section	.bss.ampEnv,"aw",%nobits
 1700              		.align	2
 1701              		.set	.LANCHOR1,. + 0
 1704              	ampEnv:
 1705 0000 00000000 		.space	280
 1705      00000000 
ARM GAS  /var/folders/sj/m2p5rq1x7lz4zl2q3d5y9hzm0000gn/T//ccbOESkQ.s 			page 30


 1705      00000000 
 1705      00000000 
 1705      00000000 
 1706              		.section	.bss.buttons,"aw",%nobits
 1707              		.align	2
 1710              	buttons:
 1711 0000 00000000 		.space	16
 1711      00000000 
 1711      00000000 
 1711      00000000 
 1712              		.section	.bss.flt,"aw",%nobits
 1713              		.align	2
 1714              		.set	.LANCHOR15,. + 0
 1717              	flt:
 1718 0000 00000000 		.space	68
 1718      00000000 
 1718      00000000 
 1718      00000000 
 1718      00000000 
 1719              		.section	.bss.hardware,"aw",%nobits
 1720              		.align	2
 1721              		.set	.LANCHOR17,. + 0
 1724              	hardware:
 1725 0000 00000000 		.space	1036
 1725      00000000 
 1725      00000000 
 1725      00000000 
 1725      00000000 
 1726              		.section	.bss.highPass,"aw",%nobits
 1727              		.align	2
 1728              		.set	.LANCHOR10,. + 0
 1731              	highPass:
 1732 0000 00000000 		.space	48
 1732      00000000 
 1732      00000000 
 1732      00000000 
 1732      00000000 
 1733              		.section	.bss.kold,"aw",%nobits
 1734              		.align	2
 1735              		.set	.LANCHOR3,. + 0
 1738              	kold:
 1739 0000 00000000 		.space	32
 1739      00000000 
 1739      00000000 
 1739      00000000 
 1739      00000000 
 1740              		.section	.bss.kvals,"aw",%nobits
 1741              		.align	2
 1742              		.set	.LANCHOR26,. + 0
 1745              	kvals:
 1746 0000 00000000 		.space	32
 1746      00000000 
 1746      00000000 
 1746      00000000 
 1746      00000000 
 1747              		.section	.bss.mode,"aw",%nobits
 1748              		.set	.LANCHOR19,. + 0
ARM GAS  /var/folders/sj/m2p5rq1x7lz4zl2q3d5y9hzm0000gn/T//ccbOESkQ.s 			page 31


 1751              	mode:
 1752 0000 00       		.space	1
 1753              		.section	.bss.noise,"aw",%nobits
 1754              		.align	2
 1755              		.set	.LANCHOR9,. + 0
 1758              	noise:
 1759 0000 00000000 		.space	16
 1759      00000000 
 1759      00000000 
 1759      00000000 
 1760              		.section	.bss.oldMode,"aw",%nobits
 1763              	oldMode:
 1764 0000 00       		.space	1
 1765              		.section	.bss.osc,"aw",%nobits
 1766              		.align	2
 1767              		.set	.LANCHOR12,. + 0
 1770              	osc:
 1771 0000 00000000 		.space	200
 1771      00000000 
 1771      00000000 
 1771      00000000 
 1771      00000000 
 1772              		.section	.bss.p_Amp,"aw",%nobits
 1773              		.align	2
 1774              		.set	.LANCHOR6,. + 0
 1777              	p_Amp:
 1778 0000 00000000 		.space	52
 1778      00000000 
 1778      00000000 
 1778      00000000 
 1778      00000000 
 1779              		.section	.bss.p_Dec,"aw",%nobits
 1780              		.align	2
 1781              		.set	.LANCHOR4,. + 0
 1784              	p_Dec:
 1785 0000 00000000 		.space	52
 1785      00000000 
 1785      00000000 
 1785      00000000 
 1785      00000000 
 1786              		.section	.bss.p_Fx,"aw",%nobits
 1787              		.align	2
 1788              		.set	.LANCHOR5,. + 0
 1791              	p_Fx:
 1792 0000 00000000 		.space	52
 1792      00000000 
 1792      00000000 
 1792      00000000 
 1792      00000000 
 1793              		.section	.bss.p_Pitch,"aw",%nobits
 1794              		.align	2
 1795              		.set	.LANCHOR2,. + 0
 1798              	p_Pitch:
 1799 0000 00000000 		.space	52
 1799      00000000 
 1799      00000000 
 1799      00000000 
ARM GAS  /var/folders/sj/m2p5rq1x7lz4zl2q3d5y9hzm0000gn/T//ccbOESkQ.s 			page 32


 1799      00000000 
 1800              		.section	.bss.p_mode,"aw",%nobits
 1801              		.align	2
 1802              		.set	.LANCHOR8,. + 0
 1805              	p_mode:
 1806 0000 00000000 		.space	52
 1806      00000000 
 1806      00000000 
 1806      00000000 
 1806      00000000 
 1807              		.section	.bss.p_tempo,"aw",%nobits
 1808              		.align	2
 1809              		.set	.LANCHOR7,. + 0
 1812              	p_tempo:
 1813 0000 00000000 		.space	52
 1813      00000000 
 1813      00000000 
 1813      00000000 
 1813      00000000 
 1814              		.section	.bss.params,"aw",%nobits
 1815              		.align	2
 1816              		.set	.LANCHOR27,. + 0
 1819              	params:
 1820 0000 00000000 		.space	80
 1820      00000000 
 1820      00000000 
 1820      00000000 
 1820      00000000 
 1821              		.section	.bss.pitchEnv,"aw",%nobits
 1822              		.align	2
 1823              		.set	.LANCHOR0,. + 0
 1826              	pitchEnv:
 1827 0000 00000000 		.space	280
 1827      00000000 
 1827      00000000 
 1827      00000000 
 1827      00000000 
 1828              		.section	.bss.sn,"aw",%nobits
 1829              		.align	2
 1830              		.set	.LANCHOR16,. + 0
 1833              	sn:
 1834 0000 00000000 		.space	68
 1834      00000000 
 1834      00000000 
 1834      00000000 
 1834      00000000 
 1835              		.section	.bss.stepLED,"aw",%nobits
 1836              		.align	2
 1837              		.set	.LANCHOR25,. + 0
 1840              	stepLED:
 1841 0000 00000000 		.space	4
 1842              		.section	.bss.tick,"aw",%nobits
 1843              		.align	2
 1844              		.set	.LANCHOR20,. + 0
 1847              	tick:
 1848 0000 00000000 		.space	16
 1848      00000000 
ARM GAS  /var/folders/sj/m2p5rq1x7lz4zl2q3d5y9hzm0000gn/T//ccbOESkQ.s 			page 33


 1848      00000000 
 1848      00000000 
 1849              		.section	.bss.trig,"aw",%nobits
 1850              		.align	2
 1851              		.set	.LANCHOR30,. + 0
 1854              	trig:
 1855 0000 00000000 		.space	20
 1855      00000000 
 1855      00000000 
 1855      00000000 
 1855      00000000 
 1856              		.section	.data.Drum,"aw"
 1857              		.align	2
 1858              		.set	.LANCHOR18,. + 0
 1861              	Drum:
 1862 0000 00000000 		.word	_Z4Kickv
 1863 0004 00000000 		.word	_Z5Snarev
 1864 0008 00000000 		.word	_Z3Hatv
 1865 000c 00000000 		.word	_Z5Laserv
 1866 0010 00000000 		.word	_Z4Buzzv
 1867              		.section	.data.keyboard_leds,"aw"
 1868              		.align	2
 1869              		.set	.LANCHOR24,. + 0
 1872              	keyboard_leds:
 1873 0000 0F000000 		.word	15
 1874 0004 0E000000 		.word	14
 1875 0008 0D000000 		.word	13
 1876 000c 0C000000 		.word	12
 1877 0010 0B000000 		.word	11
 1878 0014 0A000000 		.word	10
 1879 0018 09000000 		.word	9
 1880 001c 08000000 		.word	8
 1881 0020 00000000 		.word	0
 1882 0024 01000000 		.word	1
 1883 0028 02000000 		.word	2
 1884 002c 03000000 		.word	3
 1885 0030 04000000 		.word	4
 1886 0034 05000000 		.word	5
 1887 0038 06000000 		.word	6
 1888 003c 07000000 		.word	7
 1889              		.section	.data.knob_leds,"aw"
 1890              		.align	2
 1893              	knob_leds:
 1894 0000 10000000 		.word	16
 1895 0004 11000000 		.word	17
 1896 0008 12000000 		.word	18
 1897 000c 13000000 		.word	19
 1898 0010 14000000 		.word	20
 1899 0014 15000000 		.word	21
 1900 0018 16000000 		.word	22
 1901 001c 17000000 		.word	23
 1902              		.section	.data.mDec,"aw"
 1903              		.align	2
 1904              		.set	.LANCHOR28,. + 0
 1907              	mDec:
 1908 0000 9A99993E 		.word	1050253722
 1909 0004 0000003F 		.word	1056964608
ARM GAS  /var/folders/sj/m2p5rq1x7lz4zl2q3d5y9hzm0000gn/T//ccbOESkQ.s 			page 34


 1910 0008 0000003F 		.word	1056964608
 1911 000c 0000803F 		.word	1065353216
 1912 0010 0000003F 		.word	1056964608
 1913              		.section	.data.mPitch,"aw"
 1914              		.align	2
 1915              		.set	.LANCHOR13,. + 0
 1918              	mPitch:
 1919 0000 0000FA44 		.word	1157234688
 1920 0004 0000FA44 		.word	1157234688
 1921 0008 00007A45 		.word	1165623296
 1922 000c 00007A45 		.word	1165623296
 1923 0010 00004843 		.word	1128792064
 1924              		.section	.data.oDec,"aw"
 1925              		.align	2
 1926              		.set	.LANCHOR29,. + 0
 1929              	oDec:
 1930 0000 0AD7233C 		.word	1008981770
 1931 0004 CDCCCC3D 		.word	1036831949
 1932 0008 CDCC4C3D 		.word	1028443341
 1933 000c CDCCCC3D 		.word	1036831949
 1934 0010 CDCCCC3D 		.word	1036831949
 1935              		.section	.data.oPitch,"aw"
 1936              		.align	2
 1937              		.set	.LANCHOR14,. + 0
 1940              	oPitch:
 1941 0000 00004842 		.word	1112014848
 1942 0004 00007A44 		.word	1148846080
 1943 0008 00803B45 		.word	1161527296
 1944 000c 00004843 		.word	1128792064
 1945 0010 00002041 		.word	1092616192
 1946              		.section	.data.passPoint,"aw"
 1947              		.align	2
 1948              		.set	.LANCHOR11,. + 0
 1951              	passPoint:
 1952 0000 0000F041 		.word	1106247680
 1953              		.section	.data.tempo,"aw"
 1954              		.align	2
 1955              		.set	.LANCHOR21,. + 0
 1958              	tempo:
 1959 0000 00004040 		.word	1077936128
 1960              		.hidden	__dso_handle
 1961              		.ident	"GCC: (GNU Arm Embedded Toolchain 10-2020-q4-major) 10.2.1 20201103 (release)"
ARM GAS  /var/folders/sj/m2p5rq1x7lz4zl2q3d5y9hzm0000gn/T//ccbOESkQ.s 			page 35


DEFINED SYMBOLS
                            *ABS*:0000000000000000 Fake08.cpp
/var/folders/sj/m2p5rq1x7lz4zl2q3d5y9hzm0000gn/T//ccbOESkQ.s:15     .text._ZN7daisysp3SvfD2Ev:0000000000000000 $t
/var/folders/sj/m2p5rq1x7lz4zl2q3d5y9hzm0000gn/T//ccbOESkQ.s:24     .text._ZN7daisysp3SvfD2Ev:0000000000000000 _ZN7daisysp3SvfD2Ev
/var/folders/sj/m2p5rq1x7lz4zl2q3d5y9hzm0000gn/T//ccbOESkQ.s:24     .text._ZN7daisysp3SvfD2Ev:0000000000000000 _ZN7daisysp3SvfD1Ev
/var/folders/sj/m2p5rq1x7lz4zl2q3d5y9hzm0000gn/T//ccbOESkQ.s:33     .text._ZN7daisysp5MetroD2Ev:0000000000000000 $t
/var/folders/sj/m2p5rq1x7lz4zl2q3d5y9hzm0000gn/T//ccbOESkQ.s:41     .text._ZN7daisysp5MetroD2Ev:0000000000000000 _ZN7daisysp5MetroD2Ev
/var/folders/sj/m2p5rq1x7lz4zl2q3d5y9hzm0000gn/T//ccbOESkQ.s:41     .text._ZN7daisysp5MetroD2Ev:0000000000000000 _ZN7daisysp5MetroD1Ev
/var/folders/sj/m2p5rq1x7lz4zl2q3d5y9hzm0000gn/T//ccbOESkQ.s:50     .text._ZN5daisy9ParameterD2Ev:0000000000000000 $t
/var/folders/sj/m2p5rq1x7lz4zl2q3d5y9hzm0000gn/T//ccbOESkQ.s:58     .text._ZN5daisy9ParameterD2Ev:0000000000000000 _ZN5daisy9ParameterD2Ev
/var/folders/sj/m2p5rq1x7lz4zl2q3d5y9hzm0000gn/T//ccbOESkQ.s:58     .text._ZN5daisy9ParameterD2Ev:0000000000000000 _ZN5daisy9ParameterD1Ev
/var/folders/sj/m2p5rq1x7lz4zl2q3d5y9hzm0000gn/T//ccbOESkQ.s:67     .text._ZN5daisy10DaisyFieldD2Ev:0000000000000000 $t
/var/folders/sj/m2p5rq1x7lz4zl2q3d5y9hzm0000gn/T//ccbOESkQ.s:75     .text._ZN5daisy10DaisyFieldD2Ev:0000000000000000 _ZN5daisy10DaisyFieldD2Ev
/var/folders/sj/m2p5rq1x7lz4zl2q3d5y9hzm0000gn/T//ccbOESkQ.s:75     .text._ZN5daisy10DaisyFieldD2Ev:0000000000000000 _ZN5daisy10DaisyFieldD1Ev
/var/folders/sj/m2p5rq1x7lz4zl2q3d5y9hzm0000gn/T//ccbOESkQ.s:84     .text._Z4Kickv:0000000000000000 $t
/var/folders/sj/m2p5rq1x7lz4zl2q3d5y9hzm0000gn/T//ccbOESkQ.s:92     .text._Z4Kickv:0000000000000000 _Z4Kickv
/var/folders/sj/m2p5rq1x7lz4zl2q3d5y9hzm0000gn/T//ccbOESkQ.s:105    .text._Z4Kickv:0000000000000010 $d
/var/folders/sj/m2p5rq1x7lz4zl2q3d5y9hzm0000gn/T//ccbOESkQ.s:109    .text._Z5Snarev:0000000000000000 $t
/var/folders/sj/m2p5rq1x7lz4zl2q3d5y9hzm0000gn/T//ccbOESkQ.s:117    .text._Z5Snarev:0000000000000000 _Z5Snarev
/var/folders/sj/m2p5rq1x7lz4zl2q3d5y9hzm0000gn/T//ccbOESkQ.s:130    .text._Z5Snarev:0000000000000010 $d
/var/folders/sj/m2p5rq1x7lz4zl2q3d5y9hzm0000gn/T//ccbOESkQ.s:134    .text._Z3Hatv:0000000000000000 $t
/var/folders/sj/m2p5rq1x7lz4zl2q3d5y9hzm0000gn/T//ccbOESkQ.s:142    .text._Z3Hatv:0000000000000000 _Z3Hatv
/var/folders/sj/m2p5rq1x7lz4zl2q3d5y9hzm0000gn/T//ccbOESkQ.s:153    .text._Z3Hatv:000000000000000c $d
/var/folders/sj/m2p5rq1x7lz4zl2q3d5y9hzm0000gn/T//ccbOESkQ.s:156    .text._Z5Laserv:0000000000000000 $t
/var/folders/sj/m2p5rq1x7lz4zl2q3d5y9hzm0000gn/T//ccbOESkQ.s:164    .text._Z5Laserv:0000000000000000 _Z5Laserv
/var/folders/sj/m2p5rq1x7lz4zl2q3d5y9hzm0000gn/T//ccbOESkQ.s:177    .text._Z5Laserv:0000000000000010 $d
/var/folders/sj/m2p5rq1x7lz4zl2q3d5y9hzm0000gn/T//ccbOESkQ.s:181    .text._Z4Buzzv:0000000000000000 $t
/var/folders/sj/m2p5rq1x7lz4zl2q3d5y9hzm0000gn/T//ccbOESkQ.s:189    .text._Z4Buzzv:0000000000000000 _Z4Buzzv
/var/folders/sj/m2p5rq1x7lz4zl2q3d5y9hzm0000gn/T//ccbOESkQ.s:196    .text.__tcf_0:0000000000000000 $t
/var/folders/sj/m2p5rq1x7lz4zl2q3d5y9hzm0000gn/T//ccbOESkQ.s:203    .text.__tcf_0:0000000000000000 __tcf_0
/var/folders/sj/m2p5rq1x7lz4zl2q3d5y9hzm0000gn/T//ccbOESkQ.s:210    .text.__tcf_3:0000000000000000 $t
/var/folders/sj/m2p5rq1x7lz4zl2q3d5y9hzm0000gn/T//ccbOESkQ.s:217    .text.__tcf_3:0000000000000000 __tcf_3
/var/folders/sj/m2p5rq1x7lz4zl2q3d5y9hzm0000gn/T//ccbOESkQ.s:224    .text.__tcf_4:0000000000000000 $t
/var/folders/sj/m2p5rq1x7lz4zl2q3d5y9hzm0000gn/T//ccbOESkQ.s:231    .text.__tcf_4:0000000000000000 __tcf_4
/var/folders/sj/m2p5rq1x7lz4zl2q3d5y9hzm0000gn/T//ccbOESkQ.s:238    .text.__tcf_1:0000000000000000 $t
/var/folders/sj/m2p5rq1x7lz4zl2q3d5y9hzm0000gn/T//ccbOESkQ.s:245    .text.__tcf_1:0000000000000000 __tcf_1
/var/folders/sj/m2p5rq1x7lz4zl2q3d5y9hzm0000gn/T//ccbOESkQ.s:252    .text.__tcf_2:0000000000000000 $t
/var/folders/sj/m2p5rq1x7lz4zl2q3d5y9hzm0000gn/T//ccbOESkQ.s:259    .text.__tcf_2:0000000000000000 __tcf_2
/var/folders/sj/m2p5rq1x7lz4zl2q3d5y9hzm0000gn/T//ccbOESkQ.s:266    .text._ZN5daisy16LedDriverPca9685ILi2ELb1EE14TxCpltCallbackEPvNS_9I2CHandle6ResultE:0000000000000000 $t
/var/folders/sj/m2p5rq1x7lz4zl2q3d5y9hzm0000gn/T//ccbOESkQ.s:274    .text._ZN5daisy16LedDriverPca9685ILi2ELb1EE14TxCpltCallbackEPvNS_9I2CHandle6ResultE:0000000000000000 _ZN5daisy16LedDriverPca9685ILi2ELb1EE14TxCpltCallbackEPvNS_9I2CHandle6ResultE
/var/folders/sj/m2p5rq1x7lz4zl2q3d5y9hzm0000gn/T//ccbOESkQ.s:317    .text._ZN5daisy16LedDriverPca9685ILi2ELb1EE14TxCpltCallbackEPvNS_9I2CHandle6ResultE:0000000000000050 $d
/var/folders/sj/m2p5rq1x7lz4zl2q3d5y9hzm0000gn/T//ccbOESkQ.s:320    .text._Z10SetupDrumsf:0000000000000000 $t
/var/folders/sj/m2p5rq1x7lz4zl2q3d5y9hzm0000gn/T//ccbOESkQ.s:328    .text._Z10SetupDrumsf:0000000000000000 _Z10SetupDrumsf
/var/folders/sj/m2p5rq1x7lz4zl2q3d5y9hzm0000gn/T//ccbOESkQ.s:462    .text._Z10SetupDrumsf:00000000000001a8 $d
/var/folders/sj/m2p5rq1x7lz4zl2q3d5y9hzm0000gn/T//ccbOESkQ.s:488    .text._Z6SetSeqPbb:0000000000000000 $t
/var/folders/sj/m2p5rq1x7lz4zl2q3d5y9hzm0000gn/T//ccbOESkQ.s:496    .text._Z6SetSeqPbb:0000000000000000 _Z6SetSeqPbb
/var/folders/sj/m2p5rq1x7lz4zl2q3d5y9hzm0000gn/T//ccbOESkQ.s:504    .text._Z12UpdateSwitchv:0000000000000000 $t
/var/folders/sj/m2p5rq1x7lz4zl2q3d5y9hzm0000gn/T//ccbOESkQ.s:512    .text._Z12UpdateSwitchv:0000000000000000 _Z12UpdateSwitchv
/var/folders/sj/m2p5rq1x7lz4zl2q3d5y9hzm0000gn/T//ccbOESkQ.s:547    .text._Z12UpdateSwitchv:000000000000004c $d
/var/folders/sj/m2p5rq1x7lz4zl2q3d5y9hzm0000gn/T//ccbOESkQ.s:555    .text.startup.main:0000000000000000 $t
/var/folders/sj/m2p5rq1x7lz4zl2q3d5y9hzm0000gn/T//ccbOESkQ.s:563    .text.startup.main:0000000000000000 main
/var/folders/sj/m2p5rq1x7lz4zl2q3d5y9hzm0000gn/T//ccbOESkQ.s:675    .text.startup.main:000000000000015c $d
/var/folders/sj/m2p5rq1x7lz4zl2q3d5y9hzm0000gn/T//ccbOESkQ.s:1091   .text._Z13AudioCallbackPfS_j:0000000000000000 _Z13AudioCallbackPfS_j
/var/folders/sj/m2p5rq1x7lz4zl2q3d5y9hzm0000gn/T//ccbOESkQ.s:690    .text._Z14IncrementStepsv:0000000000000000 $t
/var/folders/sj/m2p5rq1x7lz4zl2q3d5y9hzm0000gn/T//ccbOESkQ.s:698    .text._Z14IncrementStepsv:0000000000000000 _Z14IncrementStepsv
/var/folders/sj/m2p5rq1x7lz4zl2q3d5y9hzm0000gn/T//ccbOESkQ.s:711    .text._Z14IncrementStepsv:0000000000000010 $d
/var/folders/sj/m2p5rq1x7lz4zl2q3d5y9hzm0000gn/T//ccbOESkQ.s:714    .text._Z11ProcessTickv:0000000000000000 $t
ARM GAS  /var/folders/sj/m2p5rq1x7lz4zl2q3d5y9hzm0000gn/T//ccbOESkQ.s 			page 36


/var/folders/sj/m2p5rq1x7lz4zl2q3d5y9hzm0000gn/T//ccbOESkQ.s:722    .text._Z11ProcessTickv:0000000000000000 _Z11ProcessTickv
/var/folders/sj/m2p5rq1x7lz4zl2q3d5y9hzm0000gn/T//ccbOESkQ.s:762    .text._Z11ProcessTickv:0000000000000048 $d
/var/folders/sj/m2p5rq1x7lz4zl2q3d5y9hzm0000gn/T//ccbOESkQ.s:768    .text._Z10UpdateLedsv:0000000000000000 $t
/var/folders/sj/m2p5rq1x7lz4zl2q3d5y9hzm0000gn/T//ccbOESkQ.s:776    .text._Z10UpdateLedsv:0000000000000000 _Z10UpdateLedsv
/var/folders/sj/m2p5rq1x7lz4zl2q3d5y9hzm0000gn/T//ccbOESkQ.s:894    .text._Z10UpdateLedsv:0000000000000118 $d
/var/folders/sj/m2p5rq1x7lz4zl2q3d5y9hzm0000gn/T//ccbOESkQ.s:905    .text._Z10UpdateVarsv:0000000000000000 $t
/var/folders/sj/m2p5rq1x7lz4zl2q3d5y9hzm0000gn/T//ccbOESkQ.s:913    .text._Z10UpdateVarsv:0000000000000000 _Z10UpdateVarsv
/var/folders/sj/m2p5rq1x7lz4zl2q3d5y9hzm0000gn/T//ccbOESkQ.s:1058   .text._Z10UpdateVarsv:00000000000001b0 $d
/var/folders/sj/m2p5rq1x7lz4zl2q3d5y9hzm0000gn/T//ccbOESkQ.s:1083   .text._Z13AudioCallbackPfS_j:0000000000000000 $t
/var/folders/sj/m2p5rq1x7lz4zl2q3d5y9hzm0000gn/T//ccbOESkQ.s:1232   .text._Z13AudioCallbackPfS_j:00000000000001c8 $d
/var/folders/sj/m2p5rq1x7lz4zl2q3d5y9hzm0000gn/T//ccbOESkQ.s:1257   .text._Z15ProcessControlsv:0000000000000000 $t
/var/folders/sj/m2p5rq1x7lz4zl2q3d5y9hzm0000gn/T//ccbOESkQ.s:1265   .text._Z15ProcessControlsv:0000000000000000 _Z15ProcessControlsv
/var/folders/sj/m2p5rq1x7lz4zl2q3d5y9hzm0000gn/T//ccbOESkQ.s:1280   .text._Z15ProcessControlsv:0000000000000020 $d
/var/folders/sj/m2p5rq1x7lz4zl2q3d5y9hzm0000gn/T//ccbOESkQ.s:1283   .text.startup._GLOBAL__sub_I_p_Pitch:0000000000000000 $t
/var/folders/sj/m2p5rq1x7lz4zl2q3d5y9hzm0000gn/T//ccbOESkQ.s:1290   .text.startup._GLOBAL__sub_I_p_Pitch:0000000000000000 _GLOBAL__sub_I_p_Pitch
/var/folders/sj/m2p5rq1x7lz4zl2q3d5y9hzm0000gn/T//ccbOESkQ.s:1367   .text.startup._GLOBAL__sub_I_p_Pitch:00000000000000b4 $d
/var/folders/sj/m2p5rq1x7lz4zl2q3d5y9hzm0000gn/T//ccbOESkQ.s:1390   .init_array:0000000000000000 $d
/var/folders/sj/m2p5rq1x7lz4zl2q3d5y9hzm0000gn/T//ccbOESkQ.s:1840   .bss.stepLED:0000000000000000 stepLED
/var/folders/sj/m2p5rq1x7lz4zl2q3d5y9hzm0000gn/T//ccbOESkQ.s:1861   .data.Drum:0000000000000000 Drum
/var/folders/sj/m2p5rq1x7lz4zl2q3d5y9hzm0000gn/T//ccbOESkQ.s:1958   .data.tempo:0000000000000000 tempo
/var/folders/sj/m2p5rq1x7lz4zl2q3d5y9hzm0000gn/T//ccbOESkQ.s:1691   .bss.Seq:0000000000000000 Seq
/var/folders/sj/m2p5rq1x7lz4zl2q3d5y9hzm0000gn/T//ccbOESkQ.s:1763   .bss.oldMode:0000000000000000 oldMode
/var/folders/sj/m2p5rq1x7lz4zl2q3d5y9hzm0000gn/T//ccbOESkQ.s:1751   .bss.mode:0000000000000000 mode
/var/folders/sj/m2p5rq1x7lz4zl2q3d5y9hzm0000gn/T//ccbOESkQ.s:1697   .bss.Step:0000000000000000 Step
/var/folders/sj/m2p5rq1x7lz4zl2q3d5y9hzm0000gn/T//ccbOESkQ.s:1847   .bss.tick:0000000000000000 tick
/var/folders/sj/m2p5rq1x7lz4zl2q3d5y9hzm0000gn/T//ccbOESkQ.s:1951   .data.passPoint:0000000000000000 passPoint
/var/folders/sj/m2p5rq1x7lz4zl2q3d5y9hzm0000gn/T//ccbOESkQ.s:1731   .bss.highPass:0000000000000000 highPass
/var/folders/sj/m2p5rq1x7lz4zl2q3d5y9hzm0000gn/T//ccbOESkQ.s:1833   .bss.sn:0000000000000000 sn
/var/folders/sj/m2p5rq1x7lz4zl2q3d5y9hzm0000gn/T//ccbOESkQ.s:1717   .bss.flt:0000000000000000 flt
/var/folders/sj/m2p5rq1x7lz4zl2q3d5y9hzm0000gn/T//ccbOESkQ.s:1770   .bss.osc:0000000000000000 osc
/var/folders/sj/m2p5rq1x7lz4zl2q3d5y9hzm0000gn/T//ccbOESkQ.s:1826   .bss.pitchEnv:0000000000000000 pitchEnv
/var/folders/sj/m2p5rq1x7lz4zl2q3d5y9hzm0000gn/T//ccbOESkQ.s:1704   .bss.ampEnv:0000000000000000 ampEnv
/var/folders/sj/m2p5rq1x7lz4zl2q3d5y9hzm0000gn/T//ccbOESkQ.s:1758   .bss.noise:0000000000000000 noise
/var/folders/sj/m2p5rq1x7lz4zl2q3d5y9hzm0000gn/T//ccbOESkQ.s:1893   .data.knob_leds:0000000000000000 knob_leds
/var/folders/sj/m2p5rq1x7lz4zl2q3d5y9hzm0000gn/T//ccbOESkQ.s:1872   .data.keyboard_leds:0000000000000000 keyboard_leds
/var/folders/sj/m2p5rq1x7lz4zl2q3d5y9hzm0000gn/T//ccbOESkQ.s:1710   .bss.buttons:0000000000000000 buttons
/var/folders/sj/m2p5rq1x7lz4zl2q3d5y9hzm0000gn/T//ccbOESkQ.s:1724   .bss.hardware:0000000000000000 hardware
/var/folders/sj/m2p5rq1x7lz4zl2q3d5y9hzm0000gn/T//ccbOESkQ.s:1854   .bss.trig:0000000000000000 trig
/var/folders/sj/m2p5rq1x7lz4zl2q3d5y9hzm0000gn/T//ccbOESkQ.s:1929   .data.oDec:0000000000000000 oDec
/var/folders/sj/m2p5rq1x7lz4zl2q3d5y9hzm0000gn/T//ccbOESkQ.s:1940   .data.oPitch:0000000000000000 oPitch
/var/folders/sj/m2p5rq1x7lz4zl2q3d5y9hzm0000gn/T//ccbOESkQ.s:1907   .data.mDec:0000000000000000 mDec
/var/folders/sj/m2p5rq1x7lz4zl2q3d5y9hzm0000gn/T//ccbOESkQ.s:1918   .data.mPitch:0000000000000000 mPitch
/var/folders/sj/m2p5rq1x7lz4zl2q3d5y9hzm0000gn/T//ccbOESkQ.s:1738   .bss.kold:0000000000000000 kold
/var/folders/sj/m2p5rq1x7lz4zl2q3d5y9hzm0000gn/T//ccbOESkQ.s:1745   .bss.kvals:0000000000000000 kvals
/var/folders/sj/m2p5rq1x7lz4zl2q3d5y9hzm0000gn/T//ccbOESkQ.s:1819   .bss.params:0000000000000000 params
/var/folders/sj/m2p5rq1x7lz4zl2q3d5y9hzm0000gn/T//ccbOESkQ.s:1812   .bss.p_tempo:0000000000000000 p_tempo
/var/folders/sj/m2p5rq1x7lz4zl2q3d5y9hzm0000gn/T//ccbOESkQ.s:1805   .bss.p_mode:0000000000000000 p_mode
/var/folders/sj/m2p5rq1x7lz4zl2q3d5y9hzm0000gn/T//ccbOESkQ.s:1777   .bss.p_Amp:0000000000000000 p_Amp
/var/folders/sj/m2p5rq1x7lz4zl2q3d5y9hzm0000gn/T//ccbOESkQ.s:1791   .bss.p_Fx:0000000000000000 p_Fx
/var/folders/sj/m2p5rq1x7lz4zl2q3d5y9hzm0000gn/T//ccbOESkQ.s:1784   .bss.p_Dec:0000000000000000 p_Dec
/var/folders/sj/m2p5rq1x7lz4zl2q3d5y9hzm0000gn/T//ccbOESkQ.s:1798   .bss.p_Pitch:0000000000000000 p_Pitch
/var/folders/sj/m2p5rq1x7lz4zl2q3d5y9hzm0000gn/T//ccbOESkQ.s:1427   .rodata:0000000000000000 $d
/var/folders/sj/m2p5rq1x7lz4zl2q3d5y9hzm0000gn/T//ccbOESkQ.s:1687   .bss.Seq:0000000000000000 $d
/var/folders/sj/m2p5rq1x7lz4zl2q3d5y9hzm0000gn/T//ccbOESkQ.s:1698   .bss.Step:0000000000000000 $d
/var/folders/sj/m2p5rq1x7lz4zl2q3d5y9hzm0000gn/T//ccbOESkQ.s:1700   .bss.ampEnv:0000000000000000 $d
/var/folders/sj/m2p5rq1x7lz4zl2q3d5y9hzm0000gn/T//ccbOESkQ.s:1707   .bss.buttons:0000000000000000 $d
/var/folders/sj/m2p5rq1x7lz4zl2q3d5y9hzm0000gn/T//ccbOESkQ.s:1713   .bss.flt:0000000000000000 $d
ARM GAS  /var/folders/sj/m2p5rq1x7lz4zl2q3d5y9hzm0000gn/T//ccbOESkQ.s 			page 37


/var/folders/sj/m2p5rq1x7lz4zl2q3d5y9hzm0000gn/T//ccbOESkQ.s:1720   .bss.hardware:0000000000000000 $d
/var/folders/sj/m2p5rq1x7lz4zl2q3d5y9hzm0000gn/T//ccbOESkQ.s:1727   .bss.highPass:0000000000000000 $d
/var/folders/sj/m2p5rq1x7lz4zl2q3d5y9hzm0000gn/T//ccbOESkQ.s:1734   .bss.kold:0000000000000000 $d
/var/folders/sj/m2p5rq1x7lz4zl2q3d5y9hzm0000gn/T//ccbOESkQ.s:1741   .bss.kvals:0000000000000000 $d
/var/folders/sj/m2p5rq1x7lz4zl2q3d5y9hzm0000gn/T//ccbOESkQ.s:1752   .bss.mode:0000000000000000 $d
/var/folders/sj/m2p5rq1x7lz4zl2q3d5y9hzm0000gn/T//ccbOESkQ.s:1754   .bss.noise:0000000000000000 $d
/var/folders/sj/m2p5rq1x7lz4zl2q3d5y9hzm0000gn/T//ccbOESkQ.s:1764   .bss.oldMode:0000000000000000 $d
/var/folders/sj/m2p5rq1x7lz4zl2q3d5y9hzm0000gn/T//ccbOESkQ.s:1766   .bss.osc:0000000000000000 $d
/var/folders/sj/m2p5rq1x7lz4zl2q3d5y9hzm0000gn/T//ccbOESkQ.s:1773   .bss.p_Amp:0000000000000000 $d
/var/folders/sj/m2p5rq1x7lz4zl2q3d5y9hzm0000gn/T//ccbOESkQ.s:1780   .bss.p_Dec:0000000000000000 $d
/var/folders/sj/m2p5rq1x7lz4zl2q3d5y9hzm0000gn/T//ccbOESkQ.s:1787   .bss.p_Fx:0000000000000000 $d
/var/folders/sj/m2p5rq1x7lz4zl2q3d5y9hzm0000gn/T//ccbOESkQ.s:1794   .bss.p_Pitch:0000000000000000 $d
/var/folders/sj/m2p5rq1x7lz4zl2q3d5y9hzm0000gn/T//ccbOESkQ.s:1801   .bss.p_mode:0000000000000000 $d
/var/folders/sj/m2p5rq1x7lz4zl2q3d5y9hzm0000gn/T//ccbOESkQ.s:1808   .bss.p_tempo:0000000000000000 $d
/var/folders/sj/m2p5rq1x7lz4zl2q3d5y9hzm0000gn/T//ccbOESkQ.s:1815   .bss.params:0000000000000000 $d
/var/folders/sj/m2p5rq1x7lz4zl2q3d5y9hzm0000gn/T//ccbOESkQ.s:1822   .bss.pitchEnv:0000000000000000 $d
/var/folders/sj/m2p5rq1x7lz4zl2q3d5y9hzm0000gn/T//ccbOESkQ.s:1829   .bss.sn:0000000000000000 $d
/var/folders/sj/m2p5rq1x7lz4zl2q3d5y9hzm0000gn/T//ccbOESkQ.s:1836   .bss.stepLED:0000000000000000 $d
/var/folders/sj/m2p5rq1x7lz4zl2q3d5y9hzm0000gn/T//ccbOESkQ.s:1843   .bss.tick:0000000000000000 $d
/var/folders/sj/m2p5rq1x7lz4zl2q3d5y9hzm0000gn/T//ccbOESkQ.s:1850   .bss.trig:0000000000000000 $d
/var/folders/sj/m2p5rq1x7lz4zl2q3d5y9hzm0000gn/T//ccbOESkQ.s:1857   .data.Drum:0000000000000000 $d
/var/folders/sj/m2p5rq1x7lz4zl2q3d5y9hzm0000gn/T//ccbOESkQ.s:1868   .data.keyboard_leds:0000000000000000 $d
/var/folders/sj/m2p5rq1x7lz4zl2q3d5y9hzm0000gn/T//ccbOESkQ.s:1890   .data.knob_leds:0000000000000000 $d
/var/folders/sj/m2p5rq1x7lz4zl2q3d5y9hzm0000gn/T//ccbOESkQ.s:1903   .data.mDec:0000000000000000 $d
/var/folders/sj/m2p5rq1x7lz4zl2q3d5y9hzm0000gn/T//ccbOESkQ.s:1914   .data.mPitch:0000000000000000 $d
/var/folders/sj/m2p5rq1x7lz4zl2q3d5y9hzm0000gn/T//ccbOESkQ.s:1925   .data.oDec:0000000000000000 $d
/var/folders/sj/m2p5rq1x7lz4zl2q3d5y9hzm0000gn/T//ccbOESkQ.s:1936   .data.oPitch:0000000000000000 $d
/var/folders/sj/m2p5rq1x7lz4zl2q3d5y9hzm0000gn/T//ccbOESkQ.s:1947   .data.passPoint:0000000000000000 $d
/var/folders/sj/m2p5rq1x7lz4zl2q3d5y9hzm0000gn/T//ccbOESkQ.s:1954   .data.tempo:0000000000000000 $d
                           .group:0000000000000000 _ZN7daisysp3SvfD5Ev
                           .group:0000000000000000 _ZN7daisysp5MetroD5Ev
                           .group:0000000000000000 _ZN5daisy9ParameterD5Ev
                           .group:0000000000000000 _ZN5daisy10DaisyFieldD5Ev

UNDEFINED SYMBOLS
_ZN5daisy9I2CHandle11TransmitDmaEtPhtPFvPvNS0_6ResultEES2_
_ZNK5daisy9I2CHandle9GetConfigEv
_ZN5daisy9I2CHandle4InitERKNS0_6ConfigE
_ZN5daisy9Parameter7ProcessEv
_ZN7daisysp5ATone4InitEf
_ZN7daisysp5ATone21CalculateCoefficientsEv
_ZN7daisysp10Oscillator12CalcPhaseIncEf
_ZN7daisysp5AdEnv4InitEf
_ZN7daisysp3Svf4InitEf
_ZN7daisysp3Svf6SetResEf
_ZN7daisysp3Svf7SetFreqEf
memset
_ZN7daisysp5Metro7SetFreqEf
_ZN5daisy10DaisyField4InitEb
_ZN5daisy10DaisyField15AudioSampleRateEv
_ZN5daisy10DaisyField17AudioCallbackRateEv
_ZN5daisy9Parameter4InitENS_13AnalogControlEffNS0_5CurveE
_ZN7daisysp5Metro4InitEff
_ZN5daisy10DaisyField8StartAdcEv
_ZN5daisy10DaisyField10StartAudioEPFvPfS1_jE
_ZN7daisysp5Metro7ProcessEv
_ZNK5daisy10DaisyField18KeyboardRisingEdgeEj
ARM GAS  /var/folders/sj/m2p5rq1x7lz4zl2q3d5y9hzm0000gn/T//ccbOESkQ.s 			page 38


_ZN5daisy10DaisyField22ProcessDigitalControlsEv
_ZN5daisy10DaisyField21ProcessAnalogControlsEv
_ZN7daisysp5AdEnv7ProcessEv
_ZN7daisysp10Oscillator7ProcessEv
_ZN7daisysp3Svf7ProcessEf
_ZN7daisysp5ATone7ProcessERf
__aeabi_atexit
memcpy
__dso_handle
